ARM GAS  /tmp/ccnIlCuV.s 			page 1


   1              		.cpu cortex-m0plus
   2              		.eabi_attribute 20, 1
   3              		.eabi_attribute 21, 1
   4              		.eabi_attribute 23, 3
   5              		.eabi_attribute 24, 1
   6              		.eabi_attribute 25, 1
   7              		.eabi_attribute 26, 1
   8              		.eabi_attribute 30, 1
   9              		.eabi_attribute 34, 0
  10              		.eabi_attribute 18, 4
  11              		.file	"stm32l0xx_ll_rtc.c"
  12              		.text
  13              	.Ltext0:
  14              		.cfi_sections	.debug_frame
  15              		.section	.text.LL_RTC_StructInit,"ax",%progbits
  16              		.align	1
  17              		.global	LL_RTC_StructInit
  18              		.syntax unified
  19              		.code	16
  20              		.thumb_func
  21              		.fpu softvfp
  23              	LL_RTC_StructInit:
  24              	.LFB260:
  25              		.file 1 "./Drivers/STM32L0xx_HAL_Driver/Src/stm32l0xx_ll_rtc.c"
   1:./Drivers/STM32L0xx_HAL_Driver/Src/stm32l0xx_ll_rtc.c **** /**
   2:./Drivers/STM32L0xx_HAL_Driver/Src/stm32l0xx_ll_rtc.c ****   ******************************************************************************
   3:./Drivers/STM32L0xx_HAL_Driver/Src/stm32l0xx_ll_rtc.c ****   * @file    stm32l0xx_ll_rtc.c
   4:./Drivers/STM32L0xx_HAL_Driver/Src/stm32l0xx_ll_rtc.c ****   * @author  MCD Application Team
   5:./Drivers/STM32L0xx_HAL_Driver/Src/stm32l0xx_ll_rtc.c ****   * @brief   RTC LL module driver.
   6:./Drivers/STM32L0xx_HAL_Driver/Src/stm32l0xx_ll_rtc.c ****   ******************************************************************************
   7:./Drivers/STM32L0xx_HAL_Driver/Src/stm32l0xx_ll_rtc.c ****   * @attention
   8:./Drivers/STM32L0xx_HAL_Driver/Src/stm32l0xx_ll_rtc.c ****   *
   9:./Drivers/STM32L0xx_HAL_Driver/Src/stm32l0xx_ll_rtc.c ****   * <h2><center>&copy; COPYRIGHT(c) 2016 STMicroelectronics</center></h2>
  10:./Drivers/STM32L0xx_HAL_Driver/Src/stm32l0xx_ll_rtc.c ****   *
  11:./Drivers/STM32L0xx_HAL_Driver/Src/stm32l0xx_ll_rtc.c ****   * Redistribution and use in source and binary forms, with or without modification,
  12:./Drivers/STM32L0xx_HAL_Driver/Src/stm32l0xx_ll_rtc.c ****   * are permitted provided that the following conditions are met:
  13:./Drivers/STM32L0xx_HAL_Driver/Src/stm32l0xx_ll_rtc.c ****   *   1. Redistributions of source code must retain the above copyright notice,
  14:./Drivers/STM32L0xx_HAL_Driver/Src/stm32l0xx_ll_rtc.c ****   *      this list of conditions and the following disclaimer.
  15:./Drivers/STM32L0xx_HAL_Driver/Src/stm32l0xx_ll_rtc.c ****   *   2. Redistributions in binary form must reproduce the above copyright notice,
  16:./Drivers/STM32L0xx_HAL_Driver/Src/stm32l0xx_ll_rtc.c ****   *      this list of conditions and the following disclaimer in the documentation
  17:./Drivers/STM32L0xx_HAL_Driver/Src/stm32l0xx_ll_rtc.c ****   *      and/or other materials provided with the distribution.
  18:./Drivers/STM32L0xx_HAL_Driver/Src/stm32l0xx_ll_rtc.c ****   *   3. Neither the name of STMicroelectronics nor the names of its contributors
  19:./Drivers/STM32L0xx_HAL_Driver/Src/stm32l0xx_ll_rtc.c ****   *      may be used to endorse or promote products derived from this software
  20:./Drivers/STM32L0xx_HAL_Driver/Src/stm32l0xx_ll_rtc.c ****   *      without specific prior written permission.
  21:./Drivers/STM32L0xx_HAL_Driver/Src/stm32l0xx_ll_rtc.c ****   *
  22:./Drivers/STM32L0xx_HAL_Driver/Src/stm32l0xx_ll_rtc.c ****   * THIS SOFTWARE IS PROVIDED BY THE COPYRIGHT HOLDERS AND CONTRIBUTORS "AS IS"
  23:./Drivers/STM32L0xx_HAL_Driver/Src/stm32l0xx_ll_rtc.c ****   * AND ANY EXPRESS OR IMPLIED WARRANTIES, INCLUDING, BUT NOT LIMITED TO, THE
  24:./Drivers/STM32L0xx_HAL_Driver/Src/stm32l0xx_ll_rtc.c ****   * IMPLIED WARRANTIES OF MERCHANTABILITY AND FITNESS FOR A PARTICULAR PURPOSE ARE
  25:./Drivers/STM32L0xx_HAL_Driver/Src/stm32l0xx_ll_rtc.c ****   * DISCLAIMED. IN NO EVENT SHALL THE COPYRIGHT HOLDER OR CONTRIBUTORS BE LIABLE
  26:./Drivers/STM32L0xx_HAL_Driver/Src/stm32l0xx_ll_rtc.c ****   * FOR ANY DIRECT, INDIRECT, INCIDENTAL, SPECIAL, EXEMPLARY, OR CONSEQUENTIAL
  27:./Drivers/STM32L0xx_HAL_Driver/Src/stm32l0xx_ll_rtc.c ****   * DAMAGES (INCLUDING, BUT NOT LIMITED TO, PROCUREMENT OF SUBSTITUTE GOODS OR
  28:./Drivers/STM32L0xx_HAL_Driver/Src/stm32l0xx_ll_rtc.c ****   * SERVICES; LOSS OF USE, DATA, OR PROFITS; OR BUSINESS INTERRUPTION) HOWEVER
  29:./Drivers/STM32L0xx_HAL_Driver/Src/stm32l0xx_ll_rtc.c ****   * CAUSED AND ON ANY THEORY OF LIABILITY, WHETHER IN CONTRACT, STRICT LIABILITY,
  30:./Drivers/STM32L0xx_HAL_Driver/Src/stm32l0xx_ll_rtc.c ****   * OR TORT (INCLUDING NEGLIGENCE OR OTHERWISE) ARISING IN ANY WAY OUT OF THE USE
  31:./Drivers/STM32L0xx_HAL_Driver/Src/stm32l0xx_ll_rtc.c ****   * OF THIS SOFTWARE, EVEN IF ADVISED OF THE POSSIBILITY OF SUCH DAMAGE.
  32:./Drivers/STM32L0xx_HAL_Driver/Src/stm32l0xx_ll_rtc.c ****   *
  33:./Drivers/STM32L0xx_HAL_Driver/Src/stm32l0xx_ll_rtc.c ****   ******************************************************************************
ARM GAS  /tmp/ccnIlCuV.s 			page 2


  34:./Drivers/STM32L0xx_HAL_Driver/Src/stm32l0xx_ll_rtc.c ****   */
  35:./Drivers/STM32L0xx_HAL_Driver/Src/stm32l0xx_ll_rtc.c **** #if defined(USE_FULL_LL_DRIVER)
  36:./Drivers/STM32L0xx_HAL_Driver/Src/stm32l0xx_ll_rtc.c **** 
  37:./Drivers/STM32L0xx_HAL_Driver/Src/stm32l0xx_ll_rtc.c **** /* Includes ------------------------------------------------------------------*/
  38:./Drivers/STM32L0xx_HAL_Driver/Src/stm32l0xx_ll_rtc.c **** #include "stm32l0xx_ll_rtc.h"
  39:./Drivers/STM32L0xx_HAL_Driver/Src/stm32l0xx_ll_rtc.c **** #include "stm32l0xx_ll_cortex.h"
  40:./Drivers/STM32L0xx_HAL_Driver/Src/stm32l0xx_ll_rtc.c **** #ifdef  USE_FULL_ASSERT
  41:./Drivers/STM32L0xx_HAL_Driver/Src/stm32l0xx_ll_rtc.c **** #include "stm32_assert.h"
  42:./Drivers/STM32L0xx_HAL_Driver/Src/stm32l0xx_ll_rtc.c **** #else
  43:./Drivers/STM32L0xx_HAL_Driver/Src/stm32l0xx_ll_rtc.c **** #define assert_param(expr) ((void)0U)
  44:./Drivers/STM32L0xx_HAL_Driver/Src/stm32l0xx_ll_rtc.c **** #endif
  45:./Drivers/STM32L0xx_HAL_Driver/Src/stm32l0xx_ll_rtc.c **** 
  46:./Drivers/STM32L0xx_HAL_Driver/Src/stm32l0xx_ll_rtc.c **** /** @addtogroup STM32L0xx_LL_Driver
  47:./Drivers/STM32L0xx_HAL_Driver/Src/stm32l0xx_ll_rtc.c ****   * @{
  48:./Drivers/STM32L0xx_HAL_Driver/Src/stm32l0xx_ll_rtc.c ****   */
  49:./Drivers/STM32L0xx_HAL_Driver/Src/stm32l0xx_ll_rtc.c **** 
  50:./Drivers/STM32L0xx_HAL_Driver/Src/stm32l0xx_ll_rtc.c **** #if defined(RTC)
  51:./Drivers/STM32L0xx_HAL_Driver/Src/stm32l0xx_ll_rtc.c **** 
  52:./Drivers/STM32L0xx_HAL_Driver/Src/stm32l0xx_ll_rtc.c **** /** @addtogroup RTC_LL
  53:./Drivers/STM32L0xx_HAL_Driver/Src/stm32l0xx_ll_rtc.c ****   * @{
  54:./Drivers/STM32L0xx_HAL_Driver/Src/stm32l0xx_ll_rtc.c ****   */
  55:./Drivers/STM32L0xx_HAL_Driver/Src/stm32l0xx_ll_rtc.c **** 
  56:./Drivers/STM32L0xx_HAL_Driver/Src/stm32l0xx_ll_rtc.c **** /* Private types -------------------------------------------------------------*/
  57:./Drivers/STM32L0xx_HAL_Driver/Src/stm32l0xx_ll_rtc.c **** /* Private variables ---------------------------------------------------------*/
  58:./Drivers/STM32L0xx_HAL_Driver/Src/stm32l0xx_ll_rtc.c **** /* Private constants ---------------------------------------------------------*/
  59:./Drivers/STM32L0xx_HAL_Driver/Src/stm32l0xx_ll_rtc.c **** /** @addtogroup RTC_LL_Private_Constants
  60:./Drivers/STM32L0xx_HAL_Driver/Src/stm32l0xx_ll_rtc.c ****   * @{
  61:./Drivers/STM32L0xx_HAL_Driver/Src/stm32l0xx_ll_rtc.c ****   */
  62:./Drivers/STM32L0xx_HAL_Driver/Src/stm32l0xx_ll_rtc.c **** /* Default values used for prescaler */
  63:./Drivers/STM32L0xx_HAL_Driver/Src/stm32l0xx_ll_rtc.c **** #define RTC_ASYNCH_PRESC_DEFAULT     ((uint32_t) 0x0000007FU)
  64:./Drivers/STM32L0xx_HAL_Driver/Src/stm32l0xx_ll_rtc.c **** #define RTC_SYNCH_PRESC_DEFAULT      ((uint32_t) 0x000000FFU)
  65:./Drivers/STM32L0xx_HAL_Driver/Src/stm32l0xx_ll_rtc.c **** 
  66:./Drivers/STM32L0xx_HAL_Driver/Src/stm32l0xx_ll_rtc.c **** /* Values used for timeout */
  67:./Drivers/STM32L0xx_HAL_Driver/Src/stm32l0xx_ll_rtc.c **** #define RTC_INITMODE_TIMEOUT         ((uint32_t) 1000U) /* 1s when tick set to 1ms */
  68:./Drivers/STM32L0xx_HAL_Driver/Src/stm32l0xx_ll_rtc.c **** #define RTC_SYNCHRO_TIMEOUT          ((uint32_t) 1000U) /* 1s when tick set to 1ms */
  69:./Drivers/STM32L0xx_HAL_Driver/Src/stm32l0xx_ll_rtc.c **** /**
  70:./Drivers/STM32L0xx_HAL_Driver/Src/stm32l0xx_ll_rtc.c ****   * @}
  71:./Drivers/STM32L0xx_HAL_Driver/Src/stm32l0xx_ll_rtc.c ****   */
  72:./Drivers/STM32L0xx_HAL_Driver/Src/stm32l0xx_ll_rtc.c **** 
  73:./Drivers/STM32L0xx_HAL_Driver/Src/stm32l0xx_ll_rtc.c **** /* Private macros ------------------------------------------------------------*/
  74:./Drivers/STM32L0xx_HAL_Driver/Src/stm32l0xx_ll_rtc.c **** /** @addtogroup RTC_LL_Private_Macros
  75:./Drivers/STM32L0xx_HAL_Driver/Src/stm32l0xx_ll_rtc.c ****   * @{
  76:./Drivers/STM32L0xx_HAL_Driver/Src/stm32l0xx_ll_rtc.c ****   */
  77:./Drivers/STM32L0xx_HAL_Driver/Src/stm32l0xx_ll_rtc.c **** 
  78:./Drivers/STM32L0xx_HAL_Driver/Src/stm32l0xx_ll_rtc.c **** #define IS_LL_RTC_HOURFORMAT(__VALUE__) (((__VALUE__) == LL_RTC_HOURFORMAT_24HOUR) \
  79:./Drivers/STM32L0xx_HAL_Driver/Src/stm32l0xx_ll_rtc.c ****                                       || ((__VALUE__) == LL_RTC_HOURFORMAT_AMPM))
  80:./Drivers/STM32L0xx_HAL_Driver/Src/stm32l0xx_ll_rtc.c **** 
  81:./Drivers/STM32L0xx_HAL_Driver/Src/stm32l0xx_ll_rtc.c **** #define IS_LL_RTC_ASYNCH_PREDIV(__VALUE__)   ((__VALUE__) <= (uint32_t)0x7FU)
  82:./Drivers/STM32L0xx_HAL_Driver/Src/stm32l0xx_ll_rtc.c **** 
  83:./Drivers/STM32L0xx_HAL_Driver/Src/stm32l0xx_ll_rtc.c **** #define IS_LL_RTC_SYNCH_PREDIV(__VALUE__)    ((__VALUE__) <= (uint32_t)0x7FFFU)
  84:./Drivers/STM32L0xx_HAL_Driver/Src/stm32l0xx_ll_rtc.c **** 
  85:./Drivers/STM32L0xx_HAL_Driver/Src/stm32l0xx_ll_rtc.c **** #define IS_LL_RTC_FORMAT(__VALUE__) (((__VALUE__) == LL_RTC_FORMAT_BIN) \
  86:./Drivers/STM32L0xx_HAL_Driver/Src/stm32l0xx_ll_rtc.c ****                                   || ((__VALUE__) == LL_RTC_FORMAT_BCD))
  87:./Drivers/STM32L0xx_HAL_Driver/Src/stm32l0xx_ll_rtc.c **** 
  88:./Drivers/STM32L0xx_HAL_Driver/Src/stm32l0xx_ll_rtc.c **** #define IS_LL_RTC_TIME_FORMAT(__VALUE__) (((__VALUE__) == LL_RTC_TIME_FORMAT_AM_OR_24) \
  89:./Drivers/STM32L0xx_HAL_Driver/Src/stm32l0xx_ll_rtc.c ****                                        || ((__VALUE__) == LL_RTC_TIME_FORMAT_PM))
  90:./Drivers/STM32L0xx_HAL_Driver/Src/stm32l0xx_ll_rtc.c **** 
ARM GAS  /tmp/ccnIlCuV.s 			page 3


  91:./Drivers/STM32L0xx_HAL_Driver/Src/stm32l0xx_ll_rtc.c **** #define IS_LL_RTC_HOUR12(__HOUR__)            (((__HOUR__) > 0U) && ((__HOUR__) <= 12U))
  92:./Drivers/STM32L0xx_HAL_Driver/Src/stm32l0xx_ll_rtc.c **** #define IS_LL_RTC_HOUR24(__HOUR__)            ((__HOUR__) <= 23U)
  93:./Drivers/STM32L0xx_HAL_Driver/Src/stm32l0xx_ll_rtc.c **** #define IS_LL_RTC_MINUTES(__MINUTES__)        ((__MINUTES__) <= 59U)
  94:./Drivers/STM32L0xx_HAL_Driver/Src/stm32l0xx_ll_rtc.c **** #define IS_LL_RTC_SECONDS(__SECONDS__)        ((__SECONDS__) <= 59U)
  95:./Drivers/STM32L0xx_HAL_Driver/Src/stm32l0xx_ll_rtc.c **** 
  96:./Drivers/STM32L0xx_HAL_Driver/Src/stm32l0xx_ll_rtc.c **** #define IS_LL_RTC_WEEKDAY(__VALUE__) (((__VALUE__) == LL_RTC_WEEKDAY_MONDAY) \
  97:./Drivers/STM32L0xx_HAL_Driver/Src/stm32l0xx_ll_rtc.c ****                                    || ((__VALUE__) == LL_RTC_WEEKDAY_TUESDAY) \
  98:./Drivers/STM32L0xx_HAL_Driver/Src/stm32l0xx_ll_rtc.c ****                                    || ((__VALUE__) == LL_RTC_WEEKDAY_WEDNESDAY) \
  99:./Drivers/STM32L0xx_HAL_Driver/Src/stm32l0xx_ll_rtc.c ****                                    || ((__VALUE__) == LL_RTC_WEEKDAY_THURSDAY) \
 100:./Drivers/STM32L0xx_HAL_Driver/Src/stm32l0xx_ll_rtc.c ****                                    || ((__VALUE__) == LL_RTC_WEEKDAY_FRIDAY) \
 101:./Drivers/STM32L0xx_HAL_Driver/Src/stm32l0xx_ll_rtc.c ****                                    || ((__VALUE__) == LL_RTC_WEEKDAY_SATURDAY) \
 102:./Drivers/STM32L0xx_HAL_Driver/Src/stm32l0xx_ll_rtc.c ****                                    || ((__VALUE__) == LL_RTC_WEEKDAY_SUNDAY))
 103:./Drivers/STM32L0xx_HAL_Driver/Src/stm32l0xx_ll_rtc.c **** 
 104:./Drivers/STM32L0xx_HAL_Driver/Src/stm32l0xx_ll_rtc.c **** #define IS_LL_RTC_DAY(__DAY__)    (((__DAY__) >= (uint32_t)1U) && ((__DAY__) <= (uint32_t)31U))
 105:./Drivers/STM32L0xx_HAL_Driver/Src/stm32l0xx_ll_rtc.c **** 
 106:./Drivers/STM32L0xx_HAL_Driver/Src/stm32l0xx_ll_rtc.c **** #define IS_LL_RTC_MONTH(__VALUE__) (((__VALUE__) == LL_RTC_MONTH_JANUARY) \
 107:./Drivers/STM32L0xx_HAL_Driver/Src/stm32l0xx_ll_rtc.c ****                                  || ((__VALUE__) == LL_RTC_MONTH_FEBRUARY) \
 108:./Drivers/STM32L0xx_HAL_Driver/Src/stm32l0xx_ll_rtc.c ****                                  || ((__VALUE__) == LL_RTC_MONTH_MARCH) \
 109:./Drivers/STM32L0xx_HAL_Driver/Src/stm32l0xx_ll_rtc.c ****                                  || ((__VALUE__) == LL_RTC_MONTH_APRIL) \
 110:./Drivers/STM32L0xx_HAL_Driver/Src/stm32l0xx_ll_rtc.c ****                                  || ((__VALUE__) == LL_RTC_MONTH_MAY) \
 111:./Drivers/STM32L0xx_HAL_Driver/Src/stm32l0xx_ll_rtc.c ****                                  || ((__VALUE__) == LL_RTC_MONTH_JUNE) \
 112:./Drivers/STM32L0xx_HAL_Driver/Src/stm32l0xx_ll_rtc.c ****                                  || ((__VALUE__) == LL_RTC_MONTH_JULY) \
 113:./Drivers/STM32L0xx_HAL_Driver/Src/stm32l0xx_ll_rtc.c ****                                  || ((__VALUE__) == LL_RTC_MONTH_AUGUST) \
 114:./Drivers/STM32L0xx_HAL_Driver/Src/stm32l0xx_ll_rtc.c ****                                  || ((__VALUE__) == LL_RTC_MONTH_SEPTEMBER) \
 115:./Drivers/STM32L0xx_HAL_Driver/Src/stm32l0xx_ll_rtc.c ****                                  || ((__VALUE__) == LL_RTC_MONTH_OCTOBER) \
 116:./Drivers/STM32L0xx_HAL_Driver/Src/stm32l0xx_ll_rtc.c ****                                  || ((__VALUE__) == LL_RTC_MONTH_NOVEMBER) \
 117:./Drivers/STM32L0xx_HAL_Driver/Src/stm32l0xx_ll_rtc.c ****                                  || ((__VALUE__) == LL_RTC_MONTH_DECEMBER))
 118:./Drivers/STM32L0xx_HAL_Driver/Src/stm32l0xx_ll_rtc.c **** 
 119:./Drivers/STM32L0xx_HAL_Driver/Src/stm32l0xx_ll_rtc.c **** #define IS_LL_RTC_YEAR(__YEAR__) ((__YEAR__) <= 99U)
 120:./Drivers/STM32L0xx_HAL_Driver/Src/stm32l0xx_ll_rtc.c **** 
 121:./Drivers/STM32L0xx_HAL_Driver/Src/stm32l0xx_ll_rtc.c **** #define IS_LL_RTC_ALMA_MASK(__VALUE__) (((__VALUE__) == LL_RTC_ALMA_MASK_NONE) \
 122:./Drivers/STM32L0xx_HAL_Driver/Src/stm32l0xx_ll_rtc.c ****                                      || ((__VALUE__) == LL_RTC_ALMA_MASK_DATEWEEKDAY) \
 123:./Drivers/STM32L0xx_HAL_Driver/Src/stm32l0xx_ll_rtc.c ****                                      || ((__VALUE__) == LL_RTC_ALMA_MASK_HOURS) \
 124:./Drivers/STM32L0xx_HAL_Driver/Src/stm32l0xx_ll_rtc.c ****                                      || ((__VALUE__) == LL_RTC_ALMA_MASK_MINUTES) \
 125:./Drivers/STM32L0xx_HAL_Driver/Src/stm32l0xx_ll_rtc.c ****                                      || ((__VALUE__) == LL_RTC_ALMA_MASK_SECONDS) \
 126:./Drivers/STM32L0xx_HAL_Driver/Src/stm32l0xx_ll_rtc.c ****                                      || ((__VALUE__) == LL_RTC_ALMA_MASK_ALL))
 127:./Drivers/STM32L0xx_HAL_Driver/Src/stm32l0xx_ll_rtc.c **** 
 128:./Drivers/STM32L0xx_HAL_Driver/Src/stm32l0xx_ll_rtc.c **** #define IS_LL_RTC_ALMB_MASK(__VALUE__) (((__VALUE__) == LL_RTC_ALMB_MASK_NONE) \
 129:./Drivers/STM32L0xx_HAL_Driver/Src/stm32l0xx_ll_rtc.c ****                                      || ((__VALUE__) == LL_RTC_ALMB_MASK_DATEWEEKDAY) \
 130:./Drivers/STM32L0xx_HAL_Driver/Src/stm32l0xx_ll_rtc.c ****                                      || ((__VALUE__) == LL_RTC_ALMB_MASK_HOURS) \
 131:./Drivers/STM32L0xx_HAL_Driver/Src/stm32l0xx_ll_rtc.c ****                                      || ((__VALUE__) == LL_RTC_ALMB_MASK_MINUTES) \
 132:./Drivers/STM32L0xx_HAL_Driver/Src/stm32l0xx_ll_rtc.c ****                                      || ((__VALUE__) == LL_RTC_ALMB_MASK_SECONDS) \
 133:./Drivers/STM32L0xx_HAL_Driver/Src/stm32l0xx_ll_rtc.c ****                                      || ((__VALUE__) == LL_RTC_ALMB_MASK_ALL))
 134:./Drivers/STM32L0xx_HAL_Driver/Src/stm32l0xx_ll_rtc.c **** 
 135:./Drivers/STM32L0xx_HAL_Driver/Src/stm32l0xx_ll_rtc.c **** 
 136:./Drivers/STM32L0xx_HAL_Driver/Src/stm32l0xx_ll_rtc.c **** #define IS_LL_RTC_ALMA_DATE_WEEKDAY_SEL(__SEL__) (((__SEL__) == LL_RTC_ALMA_DATEWEEKDAYSEL_DATE) ||
 137:./Drivers/STM32L0xx_HAL_Driver/Src/stm32l0xx_ll_rtc.c ****                                                   ((__SEL__) == LL_RTC_ALMA_DATEWEEKDAYSEL_WEEKDAY)
 138:./Drivers/STM32L0xx_HAL_Driver/Src/stm32l0xx_ll_rtc.c **** 
 139:./Drivers/STM32L0xx_HAL_Driver/Src/stm32l0xx_ll_rtc.c **** #define IS_LL_RTC_ALMB_DATE_WEEKDAY_SEL(__SEL__) (((__SEL__) == LL_RTC_ALMB_DATEWEEKDAYSEL_DATE) ||
 140:./Drivers/STM32L0xx_HAL_Driver/Src/stm32l0xx_ll_rtc.c ****                                                   ((__SEL__) == LL_RTC_ALMB_DATEWEEKDAYSEL_WEEKDAY)
 141:./Drivers/STM32L0xx_HAL_Driver/Src/stm32l0xx_ll_rtc.c **** 
 142:./Drivers/STM32L0xx_HAL_Driver/Src/stm32l0xx_ll_rtc.c **** 
 143:./Drivers/STM32L0xx_HAL_Driver/Src/stm32l0xx_ll_rtc.c **** /**
 144:./Drivers/STM32L0xx_HAL_Driver/Src/stm32l0xx_ll_rtc.c ****   * @}
 145:./Drivers/STM32L0xx_HAL_Driver/Src/stm32l0xx_ll_rtc.c ****   */
 146:./Drivers/STM32L0xx_HAL_Driver/Src/stm32l0xx_ll_rtc.c **** /* Private function prototypes -----------------------------------------------*/
 147:./Drivers/STM32L0xx_HAL_Driver/Src/stm32l0xx_ll_rtc.c **** /* Exported functions --------------------------------------------------------*/
ARM GAS  /tmp/ccnIlCuV.s 			page 4


 148:./Drivers/STM32L0xx_HAL_Driver/Src/stm32l0xx_ll_rtc.c **** /** @addtogroup RTC_LL_Exported_Functions
 149:./Drivers/STM32L0xx_HAL_Driver/Src/stm32l0xx_ll_rtc.c ****   * @{
 150:./Drivers/STM32L0xx_HAL_Driver/Src/stm32l0xx_ll_rtc.c ****   */
 151:./Drivers/STM32L0xx_HAL_Driver/Src/stm32l0xx_ll_rtc.c **** 
 152:./Drivers/STM32L0xx_HAL_Driver/Src/stm32l0xx_ll_rtc.c **** /** @addtogroup RTC_LL_EF_Init
 153:./Drivers/STM32L0xx_HAL_Driver/Src/stm32l0xx_ll_rtc.c ****   * @{
 154:./Drivers/STM32L0xx_HAL_Driver/Src/stm32l0xx_ll_rtc.c ****   */
 155:./Drivers/STM32L0xx_HAL_Driver/Src/stm32l0xx_ll_rtc.c **** 
 156:./Drivers/STM32L0xx_HAL_Driver/Src/stm32l0xx_ll_rtc.c **** /**
 157:./Drivers/STM32L0xx_HAL_Driver/Src/stm32l0xx_ll_rtc.c ****   * @brief  De-Initializes the RTC registers to their default reset values.
 158:./Drivers/STM32L0xx_HAL_Driver/Src/stm32l0xx_ll_rtc.c ****   * @note   This function doesn't reset the RTC Clock source and RTC Backup Data
 159:./Drivers/STM32L0xx_HAL_Driver/Src/stm32l0xx_ll_rtc.c ****   *         registers.
 160:./Drivers/STM32L0xx_HAL_Driver/Src/stm32l0xx_ll_rtc.c ****   * @param  RTCx RTC Instance
 161:./Drivers/STM32L0xx_HAL_Driver/Src/stm32l0xx_ll_rtc.c ****   * @retval An ErrorStatus enumeration value:
 162:./Drivers/STM32L0xx_HAL_Driver/Src/stm32l0xx_ll_rtc.c ****   *          - SUCCESS: RTC registers are de-initialized
 163:./Drivers/STM32L0xx_HAL_Driver/Src/stm32l0xx_ll_rtc.c ****   *          - ERROR: RTC registers are not de-initialized
 164:./Drivers/STM32L0xx_HAL_Driver/Src/stm32l0xx_ll_rtc.c ****   */
 165:./Drivers/STM32L0xx_HAL_Driver/Src/stm32l0xx_ll_rtc.c **** ErrorStatus LL_RTC_DeInit(RTC_TypeDef *RTCx)
 166:./Drivers/STM32L0xx_HAL_Driver/Src/stm32l0xx_ll_rtc.c **** {
 167:./Drivers/STM32L0xx_HAL_Driver/Src/stm32l0xx_ll_rtc.c ****   ErrorStatus status = ERROR;
 168:./Drivers/STM32L0xx_HAL_Driver/Src/stm32l0xx_ll_rtc.c **** 
 169:./Drivers/STM32L0xx_HAL_Driver/Src/stm32l0xx_ll_rtc.c ****   /* Check the parameter */
 170:./Drivers/STM32L0xx_HAL_Driver/Src/stm32l0xx_ll_rtc.c ****   assert_param(IS_RTC_ALL_INSTANCE(RTCx));
 171:./Drivers/STM32L0xx_HAL_Driver/Src/stm32l0xx_ll_rtc.c **** 
 172:./Drivers/STM32L0xx_HAL_Driver/Src/stm32l0xx_ll_rtc.c ****   /* Disable the write protection for RTC registers */
 173:./Drivers/STM32L0xx_HAL_Driver/Src/stm32l0xx_ll_rtc.c ****   LL_RTC_DisableWriteProtection(RTCx);
 174:./Drivers/STM32L0xx_HAL_Driver/Src/stm32l0xx_ll_rtc.c **** 
 175:./Drivers/STM32L0xx_HAL_Driver/Src/stm32l0xx_ll_rtc.c ****   /* Set Initialization mode */
 176:./Drivers/STM32L0xx_HAL_Driver/Src/stm32l0xx_ll_rtc.c ****   if (LL_RTC_EnterInitMode(RTCx) != ERROR)
 177:./Drivers/STM32L0xx_HAL_Driver/Src/stm32l0xx_ll_rtc.c ****   {
 178:./Drivers/STM32L0xx_HAL_Driver/Src/stm32l0xx_ll_rtc.c ****     /* Reset TR, DR and CR registers */
 179:./Drivers/STM32L0xx_HAL_Driver/Src/stm32l0xx_ll_rtc.c ****     LL_RTC_WriteReg(RTCx, TR,       0x00000000U);
 180:./Drivers/STM32L0xx_HAL_Driver/Src/stm32l0xx_ll_rtc.c **** #if defined(RTC_WAKEUP_SUPPORT)
 181:./Drivers/STM32L0xx_HAL_Driver/Src/stm32l0xx_ll_rtc.c ****     LL_RTC_WriteReg(RTCx, WUTR,     RTC_WUTR_WUT);
 182:./Drivers/STM32L0xx_HAL_Driver/Src/stm32l0xx_ll_rtc.c **** #endif /* RTC_WAKEUP_SUPPORT */
 183:./Drivers/STM32L0xx_HAL_Driver/Src/stm32l0xx_ll_rtc.c ****     LL_RTC_WriteReg(RTCx, DR  ,     (RTC_DR_WDU_0 | RTC_DR_MU_0 | RTC_DR_DU_0));
 184:./Drivers/STM32L0xx_HAL_Driver/Src/stm32l0xx_ll_rtc.c ****     /* Reset All CR bits except CR[2:0] */
 185:./Drivers/STM32L0xx_HAL_Driver/Src/stm32l0xx_ll_rtc.c **** #if defined(RTC_WAKEUP_SUPPORT)
 186:./Drivers/STM32L0xx_HAL_Driver/Src/stm32l0xx_ll_rtc.c ****     LL_RTC_WriteReg(RTCx, CR, (LL_RTC_ReadReg(RTCx, CR) & RTC_CR_WUCKSEL));
 187:./Drivers/STM32L0xx_HAL_Driver/Src/stm32l0xx_ll_rtc.c **** #else
 188:./Drivers/STM32L0xx_HAL_Driver/Src/stm32l0xx_ll_rtc.c ****     LL_RTC_WriteReg(RTCx, CR, 0x00000000U);
 189:./Drivers/STM32L0xx_HAL_Driver/Src/stm32l0xx_ll_rtc.c **** #endif /* RTC_WAKEUP_SUPPORT */
 190:./Drivers/STM32L0xx_HAL_Driver/Src/stm32l0xx_ll_rtc.c ****     LL_RTC_WriteReg(RTCx, PRER,     (RTC_PRER_PREDIV_A | RTC_SYNCH_PRESC_DEFAULT));
 191:./Drivers/STM32L0xx_HAL_Driver/Src/stm32l0xx_ll_rtc.c ****     LL_RTC_WriteReg(RTCx, ALRMAR,   0x00000000U);
 192:./Drivers/STM32L0xx_HAL_Driver/Src/stm32l0xx_ll_rtc.c ****     LL_RTC_WriteReg(RTCx, ALRMBR,   0x00000000U);
 193:./Drivers/STM32L0xx_HAL_Driver/Src/stm32l0xx_ll_rtc.c ****     LL_RTC_WriteReg(RTCx, SHIFTR,   0x00000000U);
 194:./Drivers/STM32L0xx_HAL_Driver/Src/stm32l0xx_ll_rtc.c ****     LL_RTC_WriteReg(RTCx, CALR,     0x00000000U);
 195:./Drivers/STM32L0xx_HAL_Driver/Src/stm32l0xx_ll_rtc.c ****     LL_RTC_WriteReg(RTCx, ALRMASSR, 0x00000000U);
 196:./Drivers/STM32L0xx_HAL_Driver/Src/stm32l0xx_ll_rtc.c ****     LL_RTC_WriteReg(RTCx, ALRMBSSR, 0x00000000U);
 197:./Drivers/STM32L0xx_HAL_Driver/Src/stm32l0xx_ll_rtc.c **** 
 198:./Drivers/STM32L0xx_HAL_Driver/Src/stm32l0xx_ll_rtc.c ****     /* Reset ISR register and exit initialization mode */
 199:./Drivers/STM32L0xx_HAL_Driver/Src/stm32l0xx_ll_rtc.c ****     LL_RTC_WriteReg(RTCx, ISR,      0x00000000U);
 200:./Drivers/STM32L0xx_HAL_Driver/Src/stm32l0xx_ll_rtc.c **** 
 201:./Drivers/STM32L0xx_HAL_Driver/Src/stm32l0xx_ll_rtc.c ****     /* Reset Tamper and alternate functions configuration register */
 202:./Drivers/STM32L0xx_HAL_Driver/Src/stm32l0xx_ll_rtc.c ****     LL_RTC_WriteReg(RTCx, TAMPCR, 0x00000000U);
 203:./Drivers/STM32L0xx_HAL_Driver/Src/stm32l0xx_ll_rtc.c **** 
 204:./Drivers/STM32L0xx_HAL_Driver/Src/stm32l0xx_ll_rtc.c ****     /* Reset Option register */
ARM GAS  /tmp/ccnIlCuV.s 			page 5


 205:./Drivers/STM32L0xx_HAL_Driver/Src/stm32l0xx_ll_rtc.c ****     LL_RTC_WriteReg(RTCx, OR, 0x00000000U);
 206:./Drivers/STM32L0xx_HAL_Driver/Src/stm32l0xx_ll_rtc.c **** 
 207:./Drivers/STM32L0xx_HAL_Driver/Src/stm32l0xx_ll_rtc.c ****     /* Wait till the RTC RSF flag is set */
 208:./Drivers/STM32L0xx_HAL_Driver/Src/stm32l0xx_ll_rtc.c ****     status = LL_RTC_WaitForSynchro(RTCx);
 209:./Drivers/STM32L0xx_HAL_Driver/Src/stm32l0xx_ll_rtc.c ****   }
 210:./Drivers/STM32L0xx_HAL_Driver/Src/stm32l0xx_ll_rtc.c **** 
 211:./Drivers/STM32L0xx_HAL_Driver/Src/stm32l0xx_ll_rtc.c ****   /* Enable the write protection for RTC registers */
 212:./Drivers/STM32L0xx_HAL_Driver/Src/stm32l0xx_ll_rtc.c ****   LL_RTC_EnableWriteProtection(RTCx);
 213:./Drivers/STM32L0xx_HAL_Driver/Src/stm32l0xx_ll_rtc.c **** 
 214:./Drivers/STM32L0xx_HAL_Driver/Src/stm32l0xx_ll_rtc.c ****   return status;
 215:./Drivers/STM32L0xx_HAL_Driver/Src/stm32l0xx_ll_rtc.c **** }
 216:./Drivers/STM32L0xx_HAL_Driver/Src/stm32l0xx_ll_rtc.c **** 
 217:./Drivers/STM32L0xx_HAL_Driver/Src/stm32l0xx_ll_rtc.c **** /**
 218:./Drivers/STM32L0xx_HAL_Driver/Src/stm32l0xx_ll_rtc.c ****   * @brief  Initializes the RTC registers according to the specified parameters
 219:./Drivers/STM32L0xx_HAL_Driver/Src/stm32l0xx_ll_rtc.c ****   *         in RTC_InitStruct.
 220:./Drivers/STM32L0xx_HAL_Driver/Src/stm32l0xx_ll_rtc.c ****   * @param  RTCx RTC Instance
 221:./Drivers/STM32L0xx_HAL_Driver/Src/stm32l0xx_ll_rtc.c ****   * @param  RTC_InitStruct pointer to a @ref LL_RTC_InitTypeDef structure that contains
 222:./Drivers/STM32L0xx_HAL_Driver/Src/stm32l0xx_ll_rtc.c ****   *         the configuration information for the RTC peripheral.
 223:./Drivers/STM32L0xx_HAL_Driver/Src/stm32l0xx_ll_rtc.c ****   * @note   The RTC Prescaler register is write protected and can be written in
 224:./Drivers/STM32L0xx_HAL_Driver/Src/stm32l0xx_ll_rtc.c ****   *         initialization mode only.
 225:./Drivers/STM32L0xx_HAL_Driver/Src/stm32l0xx_ll_rtc.c ****   * @retval An ErrorStatus enumeration value:
 226:./Drivers/STM32L0xx_HAL_Driver/Src/stm32l0xx_ll_rtc.c ****   *          - SUCCESS: RTC registers are initialized
 227:./Drivers/STM32L0xx_HAL_Driver/Src/stm32l0xx_ll_rtc.c ****   *          - ERROR: RTC registers are not initialized
 228:./Drivers/STM32L0xx_HAL_Driver/Src/stm32l0xx_ll_rtc.c ****   */
 229:./Drivers/STM32L0xx_HAL_Driver/Src/stm32l0xx_ll_rtc.c **** ErrorStatus LL_RTC_Init(RTC_TypeDef *RTCx, LL_RTC_InitTypeDef *RTC_InitStruct)
 230:./Drivers/STM32L0xx_HAL_Driver/Src/stm32l0xx_ll_rtc.c **** {
 231:./Drivers/STM32L0xx_HAL_Driver/Src/stm32l0xx_ll_rtc.c ****   ErrorStatus status = ERROR;
 232:./Drivers/STM32L0xx_HAL_Driver/Src/stm32l0xx_ll_rtc.c **** 
 233:./Drivers/STM32L0xx_HAL_Driver/Src/stm32l0xx_ll_rtc.c ****   /* Check the parameters */
 234:./Drivers/STM32L0xx_HAL_Driver/Src/stm32l0xx_ll_rtc.c ****   assert_param(IS_RTC_ALL_INSTANCE(RTCx));
 235:./Drivers/STM32L0xx_HAL_Driver/Src/stm32l0xx_ll_rtc.c ****   assert_param(IS_LL_RTC_HOURFORMAT(RTC_InitStruct->HourFormat));
 236:./Drivers/STM32L0xx_HAL_Driver/Src/stm32l0xx_ll_rtc.c ****   assert_param(IS_LL_RTC_ASYNCH_PREDIV(RTC_InitStruct->AsynchPrescaler));
 237:./Drivers/STM32L0xx_HAL_Driver/Src/stm32l0xx_ll_rtc.c ****   assert_param(IS_LL_RTC_SYNCH_PREDIV(RTC_InitStruct->SynchPrescaler));
 238:./Drivers/STM32L0xx_HAL_Driver/Src/stm32l0xx_ll_rtc.c **** 
 239:./Drivers/STM32L0xx_HAL_Driver/Src/stm32l0xx_ll_rtc.c ****   /* Disable the write protection for RTC registers */
 240:./Drivers/STM32L0xx_HAL_Driver/Src/stm32l0xx_ll_rtc.c ****   LL_RTC_DisableWriteProtection(RTCx);
 241:./Drivers/STM32L0xx_HAL_Driver/Src/stm32l0xx_ll_rtc.c **** 
 242:./Drivers/STM32L0xx_HAL_Driver/Src/stm32l0xx_ll_rtc.c ****   /* Set Initialization mode */
 243:./Drivers/STM32L0xx_HAL_Driver/Src/stm32l0xx_ll_rtc.c ****   if (LL_RTC_EnterInitMode(RTCx) != ERROR)
 244:./Drivers/STM32L0xx_HAL_Driver/Src/stm32l0xx_ll_rtc.c ****   {
 245:./Drivers/STM32L0xx_HAL_Driver/Src/stm32l0xx_ll_rtc.c ****     /* Set Hour Format */
 246:./Drivers/STM32L0xx_HAL_Driver/Src/stm32l0xx_ll_rtc.c ****     LL_RTC_SetHourFormat(RTCx, RTC_InitStruct->HourFormat);
 247:./Drivers/STM32L0xx_HAL_Driver/Src/stm32l0xx_ll_rtc.c **** 
 248:./Drivers/STM32L0xx_HAL_Driver/Src/stm32l0xx_ll_rtc.c ****     /* Configure Synchronous and Asynchronous prescaler factor */
 249:./Drivers/STM32L0xx_HAL_Driver/Src/stm32l0xx_ll_rtc.c ****     LL_RTC_SetSynchPrescaler(RTCx, RTC_InitStruct->SynchPrescaler);
 250:./Drivers/STM32L0xx_HAL_Driver/Src/stm32l0xx_ll_rtc.c ****     LL_RTC_SetAsynchPrescaler(RTCx, RTC_InitStruct->AsynchPrescaler);
 251:./Drivers/STM32L0xx_HAL_Driver/Src/stm32l0xx_ll_rtc.c **** 
 252:./Drivers/STM32L0xx_HAL_Driver/Src/stm32l0xx_ll_rtc.c ****     /* Exit Initialization mode */
 253:./Drivers/STM32L0xx_HAL_Driver/Src/stm32l0xx_ll_rtc.c ****     LL_RTC_DisableInitMode(RTCx);
 254:./Drivers/STM32L0xx_HAL_Driver/Src/stm32l0xx_ll_rtc.c **** 
 255:./Drivers/STM32L0xx_HAL_Driver/Src/stm32l0xx_ll_rtc.c ****     status = SUCCESS;
 256:./Drivers/STM32L0xx_HAL_Driver/Src/stm32l0xx_ll_rtc.c ****   }
 257:./Drivers/STM32L0xx_HAL_Driver/Src/stm32l0xx_ll_rtc.c ****   /* Enable the write protection for RTC registers */
 258:./Drivers/STM32L0xx_HAL_Driver/Src/stm32l0xx_ll_rtc.c ****   LL_RTC_EnableWriteProtection(RTCx);
 259:./Drivers/STM32L0xx_HAL_Driver/Src/stm32l0xx_ll_rtc.c **** 
 260:./Drivers/STM32L0xx_HAL_Driver/Src/stm32l0xx_ll_rtc.c ****   return status;
 261:./Drivers/STM32L0xx_HAL_Driver/Src/stm32l0xx_ll_rtc.c **** }
ARM GAS  /tmp/ccnIlCuV.s 			page 6


 262:./Drivers/STM32L0xx_HAL_Driver/Src/stm32l0xx_ll_rtc.c **** 
 263:./Drivers/STM32L0xx_HAL_Driver/Src/stm32l0xx_ll_rtc.c **** /**
 264:./Drivers/STM32L0xx_HAL_Driver/Src/stm32l0xx_ll_rtc.c ****   * @brief  Set each @ref LL_RTC_InitTypeDef field to default value.
 265:./Drivers/STM32L0xx_HAL_Driver/Src/stm32l0xx_ll_rtc.c ****   * @param  RTC_InitStruct pointer to a @ref LL_RTC_InitTypeDef structure which will be initialized
 266:./Drivers/STM32L0xx_HAL_Driver/Src/stm32l0xx_ll_rtc.c ****   * @retval None
 267:./Drivers/STM32L0xx_HAL_Driver/Src/stm32l0xx_ll_rtc.c ****   */
 268:./Drivers/STM32L0xx_HAL_Driver/Src/stm32l0xx_ll_rtc.c **** void LL_RTC_StructInit(LL_RTC_InitTypeDef *RTC_InitStruct)
 269:./Drivers/STM32L0xx_HAL_Driver/Src/stm32l0xx_ll_rtc.c **** {
  26              		.loc 1 269 0
  27              		.cfi_startproc
  28              		@ args = 0, pretend = 0, frame = 0
  29              		@ frame_needed = 0, uses_anonymous_args = 0
  30              		@ link register save eliminated.
  31              	.LVL0:
 270:./Drivers/STM32L0xx_HAL_Driver/Src/stm32l0xx_ll_rtc.c ****   /* Set RTC_InitStruct fields to default values */
 271:./Drivers/STM32L0xx_HAL_Driver/Src/stm32l0xx_ll_rtc.c ****   RTC_InitStruct->HourFormat      = LL_RTC_HOURFORMAT_24HOUR;
  32              		.loc 1 271 0
  33 0000 0023     		movs	r3, #0
  34 0002 0360     		str	r3, [r0]
 272:./Drivers/STM32L0xx_HAL_Driver/Src/stm32l0xx_ll_rtc.c ****   RTC_InitStruct->AsynchPrescaler = RTC_ASYNCH_PRESC_DEFAULT;
  35              		.loc 1 272 0
  36 0004 7F33     		adds	r3, r3, #127
  37 0006 4360     		str	r3, [r0, #4]
 273:./Drivers/STM32L0xx_HAL_Driver/Src/stm32l0xx_ll_rtc.c ****   RTC_InitStruct->SynchPrescaler  = RTC_SYNCH_PRESC_DEFAULT;
  38              		.loc 1 273 0
  39 0008 8033     		adds	r3, r3, #128
  40 000a 8360     		str	r3, [r0, #8]
 274:./Drivers/STM32L0xx_HAL_Driver/Src/stm32l0xx_ll_rtc.c **** }
  41              		.loc 1 274 0
  42              		@ sp needed
  43 000c 7047     		bx	lr
  44              		.cfi_endproc
  45              	.LFE260:
  47              		.section	.text.LL_RTC_TIME_StructInit,"ax",%progbits
  48              		.align	1
  49              		.global	LL_RTC_TIME_StructInit
  50              		.syntax unified
  51              		.code	16
  52              		.thumb_func
  53              		.fpu softvfp
  55              	LL_RTC_TIME_StructInit:
  56              	.LFB262:
 275:./Drivers/STM32L0xx_HAL_Driver/Src/stm32l0xx_ll_rtc.c **** 
 276:./Drivers/STM32L0xx_HAL_Driver/Src/stm32l0xx_ll_rtc.c **** /**
 277:./Drivers/STM32L0xx_HAL_Driver/Src/stm32l0xx_ll_rtc.c ****   * @brief  Set the RTC current time.
 278:./Drivers/STM32L0xx_HAL_Driver/Src/stm32l0xx_ll_rtc.c ****   * @param  RTCx RTC Instance
 279:./Drivers/STM32L0xx_HAL_Driver/Src/stm32l0xx_ll_rtc.c ****   * @param  RTC_Format This parameter can be one of the following values:
 280:./Drivers/STM32L0xx_HAL_Driver/Src/stm32l0xx_ll_rtc.c ****   *         @arg @ref LL_RTC_FORMAT_BIN
 281:./Drivers/STM32L0xx_HAL_Driver/Src/stm32l0xx_ll_rtc.c ****   *         @arg @ref LL_RTC_FORMAT_BCD
 282:./Drivers/STM32L0xx_HAL_Driver/Src/stm32l0xx_ll_rtc.c ****   * @param  RTC_TimeStruct pointer to a RTC_TimeTypeDef structure that contains
 283:./Drivers/STM32L0xx_HAL_Driver/Src/stm32l0xx_ll_rtc.c ****   *                        the time configuration information for the RTC.
 284:./Drivers/STM32L0xx_HAL_Driver/Src/stm32l0xx_ll_rtc.c ****   * @retval An ErrorStatus enumeration value:
 285:./Drivers/STM32L0xx_HAL_Driver/Src/stm32l0xx_ll_rtc.c ****   *          - SUCCESS: RTC Time register is configured
 286:./Drivers/STM32L0xx_HAL_Driver/Src/stm32l0xx_ll_rtc.c ****   *          - ERROR: RTC Time register is not configured
 287:./Drivers/STM32L0xx_HAL_Driver/Src/stm32l0xx_ll_rtc.c ****   */
 288:./Drivers/STM32L0xx_HAL_Driver/Src/stm32l0xx_ll_rtc.c **** ErrorStatus LL_RTC_TIME_Init(RTC_TypeDef *RTCx, uint32_t RTC_Format, LL_RTC_TimeTypeDef *RTC_TimeSt
 289:./Drivers/STM32L0xx_HAL_Driver/Src/stm32l0xx_ll_rtc.c **** {
ARM GAS  /tmp/ccnIlCuV.s 			page 7


 290:./Drivers/STM32L0xx_HAL_Driver/Src/stm32l0xx_ll_rtc.c ****   ErrorStatus status = ERROR;
 291:./Drivers/STM32L0xx_HAL_Driver/Src/stm32l0xx_ll_rtc.c **** 
 292:./Drivers/STM32L0xx_HAL_Driver/Src/stm32l0xx_ll_rtc.c ****   /* Check the parameters */
 293:./Drivers/STM32L0xx_HAL_Driver/Src/stm32l0xx_ll_rtc.c ****   assert_param(IS_RTC_ALL_INSTANCE(RTCx));
 294:./Drivers/STM32L0xx_HAL_Driver/Src/stm32l0xx_ll_rtc.c ****   assert_param(IS_LL_RTC_FORMAT(RTC_Format));
 295:./Drivers/STM32L0xx_HAL_Driver/Src/stm32l0xx_ll_rtc.c **** 
 296:./Drivers/STM32L0xx_HAL_Driver/Src/stm32l0xx_ll_rtc.c ****   if (RTC_Format == LL_RTC_FORMAT_BIN)
 297:./Drivers/STM32L0xx_HAL_Driver/Src/stm32l0xx_ll_rtc.c ****   {
 298:./Drivers/STM32L0xx_HAL_Driver/Src/stm32l0xx_ll_rtc.c ****     if (LL_RTC_GetHourFormat(RTCx) != LL_RTC_HOURFORMAT_24HOUR)
 299:./Drivers/STM32L0xx_HAL_Driver/Src/stm32l0xx_ll_rtc.c ****     {
 300:./Drivers/STM32L0xx_HAL_Driver/Src/stm32l0xx_ll_rtc.c ****       assert_param(IS_LL_RTC_HOUR12(RTC_TimeStruct->Hours));
 301:./Drivers/STM32L0xx_HAL_Driver/Src/stm32l0xx_ll_rtc.c ****       assert_param(IS_LL_RTC_TIME_FORMAT(RTC_TimeStruct->TimeFormat));
 302:./Drivers/STM32L0xx_HAL_Driver/Src/stm32l0xx_ll_rtc.c ****     }
 303:./Drivers/STM32L0xx_HAL_Driver/Src/stm32l0xx_ll_rtc.c ****     else
 304:./Drivers/STM32L0xx_HAL_Driver/Src/stm32l0xx_ll_rtc.c ****     {
 305:./Drivers/STM32L0xx_HAL_Driver/Src/stm32l0xx_ll_rtc.c ****       RTC_TimeStruct->TimeFormat = 0x00U;
 306:./Drivers/STM32L0xx_HAL_Driver/Src/stm32l0xx_ll_rtc.c ****       assert_param(IS_LL_RTC_HOUR24(RTC_TimeStruct->Hours));
 307:./Drivers/STM32L0xx_HAL_Driver/Src/stm32l0xx_ll_rtc.c ****     }
 308:./Drivers/STM32L0xx_HAL_Driver/Src/stm32l0xx_ll_rtc.c ****     assert_param(IS_LL_RTC_MINUTES(RTC_TimeStruct->Minutes));
 309:./Drivers/STM32L0xx_HAL_Driver/Src/stm32l0xx_ll_rtc.c ****     assert_param(IS_LL_RTC_SECONDS(RTC_TimeStruct->Seconds));
 310:./Drivers/STM32L0xx_HAL_Driver/Src/stm32l0xx_ll_rtc.c ****   }
 311:./Drivers/STM32L0xx_HAL_Driver/Src/stm32l0xx_ll_rtc.c ****   else
 312:./Drivers/STM32L0xx_HAL_Driver/Src/stm32l0xx_ll_rtc.c ****   {
 313:./Drivers/STM32L0xx_HAL_Driver/Src/stm32l0xx_ll_rtc.c ****     if (LL_RTC_GetHourFormat(RTCx) != LL_RTC_HOURFORMAT_24HOUR)
 314:./Drivers/STM32L0xx_HAL_Driver/Src/stm32l0xx_ll_rtc.c ****     {
 315:./Drivers/STM32L0xx_HAL_Driver/Src/stm32l0xx_ll_rtc.c ****       assert_param(IS_LL_RTC_HOUR12(__LL_RTC_CONVERT_BCD2BIN(RTC_TimeStruct->Hours)));
 316:./Drivers/STM32L0xx_HAL_Driver/Src/stm32l0xx_ll_rtc.c ****       assert_param(IS_LL_RTC_TIME_FORMAT(RTC_TimeStruct->TimeFormat));
 317:./Drivers/STM32L0xx_HAL_Driver/Src/stm32l0xx_ll_rtc.c ****     }
 318:./Drivers/STM32L0xx_HAL_Driver/Src/stm32l0xx_ll_rtc.c ****     else
 319:./Drivers/STM32L0xx_HAL_Driver/Src/stm32l0xx_ll_rtc.c ****     {
 320:./Drivers/STM32L0xx_HAL_Driver/Src/stm32l0xx_ll_rtc.c ****       RTC_TimeStruct->TimeFormat = 0x00U;
 321:./Drivers/STM32L0xx_HAL_Driver/Src/stm32l0xx_ll_rtc.c ****       assert_param(IS_LL_RTC_HOUR24(__LL_RTC_CONVERT_BCD2BIN(RTC_TimeStruct->Hours)));
 322:./Drivers/STM32L0xx_HAL_Driver/Src/stm32l0xx_ll_rtc.c ****     }
 323:./Drivers/STM32L0xx_HAL_Driver/Src/stm32l0xx_ll_rtc.c ****     assert_param(IS_LL_RTC_MINUTES(__LL_RTC_CONVERT_BCD2BIN(RTC_TimeStruct->Minutes)));
 324:./Drivers/STM32L0xx_HAL_Driver/Src/stm32l0xx_ll_rtc.c ****     assert_param(IS_LL_RTC_SECONDS(__LL_RTC_CONVERT_BCD2BIN(RTC_TimeStruct->Seconds)));
 325:./Drivers/STM32L0xx_HAL_Driver/Src/stm32l0xx_ll_rtc.c ****   }
 326:./Drivers/STM32L0xx_HAL_Driver/Src/stm32l0xx_ll_rtc.c **** 
 327:./Drivers/STM32L0xx_HAL_Driver/Src/stm32l0xx_ll_rtc.c ****   /* Disable the write protection for RTC registers */
 328:./Drivers/STM32L0xx_HAL_Driver/Src/stm32l0xx_ll_rtc.c ****   LL_RTC_DisableWriteProtection(RTCx);
 329:./Drivers/STM32L0xx_HAL_Driver/Src/stm32l0xx_ll_rtc.c **** 
 330:./Drivers/STM32L0xx_HAL_Driver/Src/stm32l0xx_ll_rtc.c ****   /* Set Initialization mode */
 331:./Drivers/STM32L0xx_HAL_Driver/Src/stm32l0xx_ll_rtc.c ****   if (LL_RTC_EnterInitMode(RTCx) != ERROR)
 332:./Drivers/STM32L0xx_HAL_Driver/Src/stm32l0xx_ll_rtc.c ****   {
 333:./Drivers/STM32L0xx_HAL_Driver/Src/stm32l0xx_ll_rtc.c ****     /* Check the input parameters format */
 334:./Drivers/STM32L0xx_HAL_Driver/Src/stm32l0xx_ll_rtc.c ****     if (RTC_Format != LL_RTC_FORMAT_BIN)
 335:./Drivers/STM32L0xx_HAL_Driver/Src/stm32l0xx_ll_rtc.c ****     {
 336:./Drivers/STM32L0xx_HAL_Driver/Src/stm32l0xx_ll_rtc.c ****       LL_RTC_TIME_Config(RTCx, RTC_TimeStruct->TimeFormat, RTC_TimeStruct->Hours,
 337:./Drivers/STM32L0xx_HAL_Driver/Src/stm32l0xx_ll_rtc.c ****                          RTC_TimeStruct->Minutes, RTC_TimeStruct->Seconds);
 338:./Drivers/STM32L0xx_HAL_Driver/Src/stm32l0xx_ll_rtc.c ****     }
 339:./Drivers/STM32L0xx_HAL_Driver/Src/stm32l0xx_ll_rtc.c ****     else
 340:./Drivers/STM32L0xx_HAL_Driver/Src/stm32l0xx_ll_rtc.c ****     {
 341:./Drivers/STM32L0xx_HAL_Driver/Src/stm32l0xx_ll_rtc.c ****       LL_RTC_TIME_Config(RTCx, RTC_TimeStruct->TimeFormat, __LL_RTC_CONVERT_BIN2BCD(RTC_TimeStruct-
 342:./Drivers/STM32L0xx_HAL_Driver/Src/stm32l0xx_ll_rtc.c ****                          __LL_RTC_CONVERT_BIN2BCD(RTC_TimeStruct->Minutes),
 343:./Drivers/STM32L0xx_HAL_Driver/Src/stm32l0xx_ll_rtc.c ****                          __LL_RTC_CONVERT_BIN2BCD(RTC_TimeStruct->Seconds));
 344:./Drivers/STM32L0xx_HAL_Driver/Src/stm32l0xx_ll_rtc.c ****     }
 345:./Drivers/STM32L0xx_HAL_Driver/Src/stm32l0xx_ll_rtc.c **** 
 346:./Drivers/STM32L0xx_HAL_Driver/Src/stm32l0xx_ll_rtc.c ****     /* Exit Initialization mode */
ARM GAS  /tmp/ccnIlCuV.s 			page 8


 347:./Drivers/STM32L0xx_HAL_Driver/Src/stm32l0xx_ll_rtc.c ****     LL_RTC_DisableInitMode(RTC);
 348:./Drivers/STM32L0xx_HAL_Driver/Src/stm32l0xx_ll_rtc.c **** 
 349:./Drivers/STM32L0xx_HAL_Driver/Src/stm32l0xx_ll_rtc.c ****     /* If  RTC_CR_BYPSHAD bit = 0, wait for synchro else this check is not needed */
 350:./Drivers/STM32L0xx_HAL_Driver/Src/stm32l0xx_ll_rtc.c ****     if (LL_RTC_IsShadowRegBypassEnabled(RTCx) == 0U)
 351:./Drivers/STM32L0xx_HAL_Driver/Src/stm32l0xx_ll_rtc.c ****     {
 352:./Drivers/STM32L0xx_HAL_Driver/Src/stm32l0xx_ll_rtc.c ****       status = LL_RTC_WaitForSynchro(RTCx);
 353:./Drivers/STM32L0xx_HAL_Driver/Src/stm32l0xx_ll_rtc.c ****     }
 354:./Drivers/STM32L0xx_HAL_Driver/Src/stm32l0xx_ll_rtc.c ****     else
 355:./Drivers/STM32L0xx_HAL_Driver/Src/stm32l0xx_ll_rtc.c ****     {
 356:./Drivers/STM32L0xx_HAL_Driver/Src/stm32l0xx_ll_rtc.c ****       status = SUCCESS;
 357:./Drivers/STM32L0xx_HAL_Driver/Src/stm32l0xx_ll_rtc.c ****     }
 358:./Drivers/STM32L0xx_HAL_Driver/Src/stm32l0xx_ll_rtc.c ****   }
 359:./Drivers/STM32L0xx_HAL_Driver/Src/stm32l0xx_ll_rtc.c ****   /* Enable the write protection for RTC registers */
 360:./Drivers/STM32L0xx_HAL_Driver/Src/stm32l0xx_ll_rtc.c ****   LL_RTC_EnableWriteProtection(RTCx);
 361:./Drivers/STM32L0xx_HAL_Driver/Src/stm32l0xx_ll_rtc.c **** 
 362:./Drivers/STM32L0xx_HAL_Driver/Src/stm32l0xx_ll_rtc.c ****   return status;
 363:./Drivers/STM32L0xx_HAL_Driver/Src/stm32l0xx_ll_rtc.c **** }
 364:./Drivers/STM32L0xx_HAL_Driver/Src/stm32l0xx_ll_rtc.c **** 
 365:./Drivers/STM32L0xx_HAL_Driver/Src/stm32l0xx_ll_rtc.c **** /**
 366:./Drivers/STM32L0xx_HAL_Driver/Src/stm32l0xx_ll_rtc.c ****   * @brief  Set each @ref LL_RTC_TimeTypeDef field to default value (Time = 00h:00min:00sec).
 367:./Drivers/STM32L0xx_HAL_Driver/Src/stm32l0xx_ll_rtc.c ****   * @param  RTC_TimeStruct pointer to a @ref LL_RTC_TimeTypeDef structure which will be initialized
 368:./Drivers/STM32L0xx_HAL_Driver/Src/stm32l0xx_ll_rtc.c ****   * @retval None
 369:./Drivers/STM32L0xx_HAL_Driver/Src/stm32l0xx_ll_rtc.c ****   */
 370:./Drivers/STM32L0xx_HAL_Driver/Src/stm32l0xx_ll_rtc.c **** void LL_RTC_TIME_StructInit(LL_RTC_TimeTypeDef *RTC_TimeStruct)
 371:./Drivers/STM32L0xx_HAL_Driver/Src/stm32l0xx_ll_rtc.c **** {
  57              		.loc 1 371 0
  58              		.cfi_startproc
  59              		@ args = 0, pretend = 0, frame = 0
  60              		@ frame_needed = 0, uses_anonymous_args = 0
  61              		@ link register save eliminated.
  62              	.LVL1:
 372:./Drivers/STM32L0xx_HAL_Driver/Src/stm32l0xx_ll_rtc.c ****   /* Time = 00h:00min:00sec */
 373:./Drivers/STM32L0xx_HAL_Driver/Src/stm32l0xx_ll_rtc.c ****   RTC_TimeStruct->TimeFormat = LL_RTC_TIME_FORMAT_AM_OR_24;
  63              		.loc 1 373 0
  64 0000 0023     		movs	r3, #0
  65 0002 0360     		str	r3, [r0]
 374:./Drivers/STM32L0xx_HAL_Driver/Src/stm32l0xx_ll_rtc.c ****   RTC_TimeStruct->Hours      = 0U;
  66              		.loc 1 374 0
  67 0004 0371     		strb	r3, [r0, #4]
 375:./Drivers/STM32L0xx_HAL_Driver/Src/stm32l0xx_ll_rtc.c ****   RTC_TimeStruct->Minutes    = 0U;
  68              		.loc 1 375 0
  69 0006 4371     		strb	r3, [r0, #5]
 376:./Drivers/STM32L0xx_HAL_Driver/Src/stm32l0xx_ll_rtc.c ****   RTC_TimeStruct->Seconds    = 0U;
  70              		.loc 1 376 0
  71 0008 8371     		strb	r3, [r0, #6]
 377:./Drivers/STM32L0xx_HAL_Driver/Src/stm32l0xx_ll_rtc.c **** }
  72              		.loc 1 377 0
  73              		@ sp needed
  74 000a 7047     		bx	lr
  75              		.cfi_endproc
  76              	.LFE262:
  78              		.section	.text.LL_RTC_DATE_StructInit,"ax",%progbits
  79              		.align	1
  80              		.global	LL_RTC_DATE_StructInit
  81              		.syntax unified
  82              		.code	16
  83              		.thumb_func
ARM GAS  /tmp/ccnIlCuV.s 			page 9


  84              		.fpu softvfp
  86              	LL_RTC_DATE_StructInit:
  87              	.LFB264:
 378:./Drivers/STM32L0xx_HAL_Driver/Src/stm32l0xx_ll_rtc.c **** 
 379:./Drivers/STM32L0xx_HAL_Driver/Src/stm32l0xx_ll_rtc.c **** /**
 380:./Drivers/STM32L0xx_HAL_Driver/Src/stm32l0xx_ll_rtc.c ****   * @brief  Set the RTC current date.
 381:./Drivers/STM32L0xx_HAL_Driver/Src/stm32l0xx_ll_rtc.c ****   * @param  RTCx RTC Instance
 382:./Drivers/STM32L0xx_HAL_Driver/Src/stm32l0xx_ll_rtc.c ****   * @param  RTC_Format This parameter can be one of the following values:
 383:./Drivers/STM32L0xx_HAL_Driver/Src/stm32l0xx_ll_rtc.c ****   *         @arg @ref LL_RTC_FORMAT_BIN
 384:./Drivers/STM32L0xx_HAL_Driver/Src/stm32l0xx_ll_rtc.c ****   *         @arg @ref LL_RTC_FORMAT_BCD
 385:./Drivers/STM32L0xx_HAL_Driver/Src/stm32l0xx_ll_rtc.c ****   * @param  RTC_DateStruct: pointer to a RTC_DateTypeDef structure that contains
 386:./Drivers/STM32L0xx_HAL_Driver/Src/stm32l0xx_ll_rtc.c ****   *                         the date configuration information for the RTC.
 387:./Drivers/STM32L0xx_HAL_Driver/Src/stm32l0xx_ll_rtc.c ****   * @retval An ErrorStatus enumeration value:
 388:./Drivers/STM32L0xx_HAL_Driver/Src/stm32l0xx_ll_rtc.c ****   *          - SUCCESS: RTC Day register is configured
 389:./Drivers/STM32L0xx_HAL_Driver/Src/stm32l0xx_ll_rtc.c ****   *          - ERROR: RTC Day register is not configured
 390:./Drivers/STM32L0xx_HAL_Driver/Src/stm32l0xx_ll_rtc.c ****   */
 391:./Drivers/STM32L0xx_HAL_Driver/Src/stm32l0xx_ll_rtc.c **** ErrorStatus LL_RTC_DATE_Init(RTC_TypeDef *RTCx, uint32_t RTC_Format, LL_RTC_DateTypeDef *RTC_DateSt
 392:./Drivers/STM32L0xx_HAL_Driver/Src/stm32l0xx_ll_rtc.c **** {
 393:./Drivers/STM32L0xx_HAL_Driver/Src/stm32l0xx_ll_rtc.c ****   ErrorStatus status = ERROR;
 394:./Drivers/STM32L0xx_HAL_Driver/Src/stm32l0xx_ll_rtc.c **** 
 395:./Drivers/STM32L0xx_HAL_Driver/Src/stm32l0xx_ll_rtc.c ****   /* Check the parameters */
 396:./Drivers/STM32L0xx_HAL_Driver/Src/stm32l0xx_ll_rtc.c ****   assert_param(IS_RTC_ALL_INSTANCE(RTCx));
 397:./Drivers/STM32L0xx_HAL_Driver/Src/stm32l0xx_ll_rtc.c ****   assert_param(IS_LL_RTC_FORMAT(RTC_Format));
 398:./Drivers/STM32L0xx_HAL_Driver/Src/stm32l0xx_ll_rtc.c **** 
 399:./Drivers/STM32L0xx_HAL_Driver/Src/stm32l0xx_ll_rtc.c ****   if ((RTC_Format == LL_RTC_FORMAT_BIN) && ((RTC_DateStruct->Month & 0x10U) == 0x10U))
 400:./Drivers/STM32L0xx_HAL_Driver/Src/stm32l0xx_ll_rtc.c ****   {
 401:./Drivers/STM32L0xx_HAL_Driver/Src/stm32l0xx_ll_rtc.c ****     RTC_DateStruct->Month = (RTC_DateStruct->Month & (uint32_t)~(0x10U)) + 0x0AU;
 402:./Drivers/STM32L0xx_HAL_Driver/Src/stm32l0xx_ll_rtc.c ****   }
 403:./Drivers/STM32L0xx_HAL_Driver/Src/stm32l0xx_ll_rtc.c ****   if (RTC_Format == LL_RTC_FORMAT_BIN)
 404:./Drivers/STM32L0xx_HAL_Driver/Src/stm32l0xx_ll_rtc.c ****   {
 405:./Drivers/STM32L0xx_HAL_Driver/Src/stm32l0xx_ll_rtc.c ****     assert_param(IS_LL_RTC_YEAR(RTC_DateStruct->Year));
 406:./Drivers/STM32L0xx_HAL_Driver/Src/stm32l0xx_ll_rtc.c ****     assert_param(IS_LL_RTC_MONTH(RTC_DateStruct->Month));
 407:./Drivers/STM32L0xx_HAL_Driver/Src/stm32l0xx_ll_rtc.c ****     assert_param(IS_LL_RTC_DAY(RTC_DateStruct->Day));
 408:./Drivers/STM32L0xx_HAL_Driver/Src/stm32l0xx_ll_rtc.c ****   }
 409:./Drivers/STM32L0xx_HAL_Driver/Src/stm32l0xx_ll_rtc.c ****   else
 410:./Drivers/STM32L0xx_HAL_Driver/Src/stm32l0xx_ll_rtc.c ****   {
 411:./Drivers/STM32L0xx_HAL_Driver/Src/stm32l0xx_ll_rtc.c ****     assert_param(IS_LL_RTC_YEAR(__LL_RTC_CONVERT_BCD2BIN(RTC_DateStruct->Year)));
 412:./Drivers/STM32L0xx_HAL_Driver/Src/stm32l0xx_ll_rtc.c ****     assert_param(IS_LL_RTC_MONTH(__LL_RTC_CONVERT_BCD2BIN(RTC_DateStruct->Month)));
 413:./Drivers/STM32L0xx_HAL_Driver/Src/stm32l0xx_ll_rtc.c ****     assert_param(IS_LL_RTC_DAY(__LL_RTC_CONVERT_BCD2BIN(RTC_DateStruct->Day)));
 414:./Drivers/STM32L0xx_HAL_Driver/Src/stm32l0xx_ll_rtc.c ****   }
 415:./Drivers/STM32L0xx_HAL_Driver/Src/stm32l0xx_ll_rtc.c ****   assert_param(IS_LL_RTC_WEEKDAY(RTC_DateStruct->WeekDay));
 416:./Drivers/STM32L0xx_HAL_Driver/Src/stm32l0xx_ll_rtc.c **** 
 417:./Drivers/STM32L0xx_HAL_Driver/Src/stm32l0xx_ll_rtc.c ****   /* Disable the write protection for RTC registers */
 418:./Drivers/STM32L0xx_HAL_Driver/Src/stm32l0xx_ll_rtc.c ****   LL_RTC_DisableWriteProtection(RTCx);
 419:./Drivers/STM32L0xx_HAL_Driver/Src/stm32l0xx_ll_rtc.c **** 
 420:./Drivers/STM32L0xx_HAL_Driver/Src/stm32l0xx_ll_rtc.c ****   /* Set Initialization mode */
 421:./Drivers/STM32L0xx_HAL_Driver/Src/stm32l0xx_ll_rtc.c ****   if (LL_RTC_EnterInitMode(RTCx) != ERROR)
 422:./Drivers/STM32L0xx_HAL_Driver/Src/stm32l0xx_ll_rtc.c ****   {
 423:./Drivers/STM32L0xx_HAL_Driver/Src/stm32l0xx_ll_rtc.c ****     /* Check the input parameters format */
 424:./Drivers/STM32L0xx_HAL_Driver/Src/stm32l0xx_ll_rtc.c ****     if (RTC_Format != LL_RTC_FORMAT_BIN)
 425:./Drivers/STM32L0xx_HAL_Driver/Src/stm32l0xx_ll_rtc.c ****     {
 426:./Drivers/STM32L0xx_HAL_Driver/Src/stm32l0xx_ll_rtc.c ****       LL_RTC_DATE_Config(RTCx, RTC_DateStruct->WeekDay, RTC_DateStruct->Day, RTC_DateStruct->Month,
 427:./Drivers/STM32L0xx_HAL_Driver/Src/stm32l0xx_ll_rtc.c ****     }
 428:./Drivers/STM32L0xx_HAL_Driver/Src/stm32l0xx_ll_rtc.c ****     else
 429:./Drivers/STM32L0xx_HAL_Driver/Src/stm32l0xx_ll_rtc.c ****     {
 430:./Drivers/STM32L0xx_HAL_Driver/Src/stm32l0xx_ll_rtc.c ****       LL_RTC_DATE_Config(RTCx, RTC_DateStruct->WeekDay, __LL_RTC_CONVERT_BIN2BCD(RTC_DateStruct->Da
 431:./Drivers/STM32L0xx_HAL_Driver/Src/stm32l0xx_ll_rtc.c ****                          __LL_RTC_CONVERT_BIN2BCD(RTC_DateStruct->Month), __LL_RTC_CONVERT_BIN2BCD(
ARM GAS  /tmp/ccnIlCuV.s 			page 10


 432:./Drivers/STM32L0xx_HAL_Driver/Src/stm32l0xx_ll_rtc.c ****     }
 433:./Drivers/STM32L0xx_HAL_Driver/Src/stm32l0xx_ll_rtc.c **** 
 434:./Drivers/STM32L0xx_HAL_Driver/Src/stm32l0xx_ll_rtc.c ****     /* Exit Initialization mode */
 435:./Drivers/STM32L0xx_HAL_Driver/Src/stm32l0xx_ll_rtc.c ****     LL_RTC_DisableInitMode(RTC);
 436:./Drivers/STM32L0xx_HAL_Driver/Src/stm32l0xx_ll_rtc.c **** 
 437:./Drivers/STM32L0xx_HAL_Driver/Src/stm32l0xx_ll_rtc.c ****     /* If  RTC_CR_BYPSHAD bit = 0, wait for synchro else this check is not needed */
 438:./Drivers/STM32L0xx_HAL_Driver/Src/stm32l0xx_ll_rtc.c ****     if (LL_RTC_IsShadowRegBypassEnabled(RTCx) == 0U)
 439:./Drivers/STM32L0xx_HAL_Driver/Src/stm32l0xx_ll_rtc.c ****     {
 440:./Drivers/STM32L0xx_HAL_Driver/Src/stm32l0xx_ll_rtc.c ****       status = LL_RTC_WaitForSynchro(RTCx);
 441:./Drivers/STM32L0xx_HAL_Driver/Src/stm32l0xx_ll_rtc.c ****     }
 442:./Drivers/STM32L0xx_HAL_Driver/Src/stm32l0xx_ll_rtc.c ****     else
 443:./Drivers/STM32L0xx_HAL_Driver/Src/stm32l0xx_ll_rtc.c ****     {
 444:./Drivers/STM32L0xx_HAL_Driver/Src/stm32l0xx_ll_rtc.c ****       status = SUCCESS;
 445:./Drivers/STM32L0xx_HAL_Driver/Src/stm32l0xx_ll_rtc.c ****     }
 446:./Drivers/STM32L0xx_HAL_Driver/Src/stm32l0xx_ll_rtc.c ****   }
 447:./Drivers/STM32L0xx_HAL_Driver/Src/stm32l0xx_ll_rtc.c ****   /* Enable the write protection for RTC registers */
 448:./Drivers/STM32L0xx_HAL_Driver/Src/stm32l0xx_ll_rtc.c ****   LL_RTC_EnableWriteProtection(RTCx);
 449:./Drivers/STM32L0xx_HAL_Driver/Src/stm32l0xx_ll_rtc.c **** 
 450:./Drivers/STM32L0xx_HAL_Driver/Src/stm32l0xx_ll_rtc.c ****   return status;
 451:./Drivers/STM32L0xx_HAL_Driver/Src/stm32l0xx_ll_rtc.c **** }
 452:./Drivers/STM32L0xx_HAL_Driver/Src/stm32l0xx_ll_rtc.c **** 
 453:./Drivers/STM32L0xx_HAL_Driver/Src/stm32l0xx_ll_rtc.c **** /**
 454:./Drivers/STM32L0xx_HAL_Driver/Src/stm32l0xx_ll_rtc.c ****   * @brief  Set each @ref LL_RTC_DateTypeDef field to default value (date = Monday, January 01 xx00
 455:./Drivers/STM32L0xx_HAL_Driver/Src/stm32l0xx_ll_rtc.c ****   * @param  RTC_DateStruct pointer to a @ref LL_RTC_DateTypeDef structure which will be initialized
 456:./Drivers/STM32L0xx_HAL_Driver/Src/stm32l0xx_ll_rtc.c ****   * @retval None
 457:./Drivers/STM32L0xx_HAL_Driver/Src/stm32l0xx_ll_rtc.c ****   */
 458:./Drivers/STM32L0xx_HAL_Driver/Src/stm32l0xx_ll_rtc.c **** void LL_RTC_DATE_StructInit(LL_RTC_DateTypeDef *RTC_DateStruct)
 459:./Drivers/STM32L0xx_HAL_Driver/Src/stm32l0xx_ll_rtc.c **** {
  88              		.loc 1 459 0
  89              		.cfi_startproc
  90              		@ args = 0, pretend = 0, frame = 0
  91              		@ frame_needed = 0, uses_anonymous_args = 0
  92              		@ link register save eliminated.
  93              	.LVL2:
 460:./Drivers/STM32L0xx_HAL_Driver/Src/stm32l0xx_ll_rtc.c ****   /* Monday, January 01 xx00 */
 461:./Drivers/STM32L0xx_HAL_Driver/Src/stm32l0xx_ll_rtc.c ****   RTC_DateStruct->WeekDay = LL_RTC_WEEKDAY_MONDAY;
  94              		.loc 1 461 0
  95 0000 0123     		movs	r3, #1
  96 0002 0370     		strb	r3, [r0]
 462:./Drivers/STM32L0xx_HAL_Driver/Src/stm32l0xx_ll_rtc.c ****   RTC_DateStruct->Day     = 1U;
  97              		.loc 1 462 0
  98 0004 8370     		strb	r3, [r0, #2]
 463:./Drivers/STM32L0xx_HAL_Driver/Src/stm32l0xx_ll_rtc.c ****   RTC_DateStruct->Month   = LL_RTC_MONTH_JANUARY;
  99              		.loc 1 463 0
 100 0006 4370     		strb	r3, [r0, #1]
 464:./Drivers/STM32L0xx_HAL_Driver/Src/stm32l0xx_ll_rtc.c ****   RTC_DateStruct->Year    = 0U;
 101              		.loc 1 464 0
 102 0008 0023     		movs	r3, #0
 103 000a C370     		strb	r3, [r0, #3]
 465:./Drivers/STM32L0xx_HAL_Driver/Src/stm32l0xx_ll_rtc.c **** }
 104              		.loc 1 465 0
 105              		@ sp needed
 106 000c 7047     		bx	lr
 107              		.cfi_endproc
 108              	.LFE264:
 110              		.global	__aeabi_uidiv
 111              		.global	__aeabi_uidivmod
ARM GAS  /tmp/ccnIlCuV.s 			page 11


 112              		.section	.text.LL_RTC_ALMA_Init,"ax",%progbits
 113              		.align	1
 114              		.global	LL_RTC_ALMA_Init
 115              		.syntax unified
 116              		.code	16
 117              		.thumb_func
 118              		.fpu softvfp
 120              	LL_RTC_ALMA_Init:
 121              	.LFB265:
 466:./Drivers/STM32L0xx_HAL_Driver/Src/stm32l0xx_ll_rtc.c **** 
 467:./Drivers/STM32L0xx_HAL_Driver/Src/stm32l0xx_ll_rtc.c **** /**
 468:./Drivers/STM32L0xx_HAL_Driver/Src/stm32l0xx_ll_rtc.c ****   * @brief  Set the RTC Alarm A.
 469:./Drivers/STM32L0xx_HAL_Driver/Src/stm32l0xx_ll_rtc.c ****   * @note   The Alarm register can only be written when the corresponding Alarm
 470:./Drivers/STM32L0xx_HAL_Driver/Src/stm32l0xx_ll_rtc.c ****   *         is disabled (Use @ref LL_RTC_ALMA_Disable function).
 471:./Drivers/STM32L0xx_HAL_Driver/Src/stm32l0xx_ll_rtc.c ****   * @param  RTCx RTC Instance
 472:./Drivers/STM32L0xx_HAL_Driver/Src/stm32l0xx_ll_rtc.c ****   * @param  RTC_Format This parameter can be one of the following values:
 473:./Drivers/STM32L0xx_HAL_Driver/Src/stm32l0xx_ll_rtc.c ****   *         @arg @ref LL_RTC_FORMAT_BIN
 474:./Drivers/STM32L0xx_HAL_Driver/Src/stm32l0xx_ll_rtc.c ****   *         @arg @ref LL_RTC_FORMAT_BCD
 475:./Drivers/STM32L0xx_HAL_Driver/Src/stm32l0xx_ll_rtc.c ****   * @param  RTC_AlarmStruct pointer to a @ref LL_RTC_AlarmTypeDef structure that
 476:./Drivers/STM32L0xx_HAL_Driver/Src/stm32l0xx_ll_rtc.c ****   *                         contains the alarm configuration parameters.
 477:./Drivers/STM32L0xx_HAL_Driver/Src/stm32l0xx_ll_rtc.c ****   * @retval An ErrorStatus enumeration value:
 478:./Drivers/STM32L0xx_HAL_Driver/Src/stm32l0xx_ll_rtc.c ****   *          - SUCCESS: ALARMA registers are configured
 479:./Drivers/STM32L0xx_HAL_Driver/Src/stm32l0xx_ll_rtc.c ****   *          - ERROR: ALARMA registers are not configured
 480:./Drivers/STM32L0xx_HAL_Driver/Src/stm32l0xx_ll_rtc.c ****   */
 481:./Drivers/STM32L0xx_HAL_Driver/Src/stm32l0xx_ll_rtc.c **** ErrorStatus LL_RTC_ALMA_Init(RTC_TypeDef *RTCx, uint32_t RTC_Format, LL_RTC_AlarmTypeDef *RTC_Alarm
 482:./Drivers/STM32L0xx_HAL_Driver/Src/stm32l0xx_ll_rtc.c **** {
 122              		.loc 1 482 0
 123              		.cfi_startproc
 124              		@ args = 0, pretend = 0, frame = 0
 125              		@ frame_needed = 0, uses_anonymous_args = 0
 126              	.LVL3:
 127 0000 F0B5     		push	{r4, r5, r6, r7, lr}
 128              	.LCFI0:
 129              		.cfi_def_cfa_offset 20
 130              		.cfi_offset 4, -20
 131              		.cfi_offset 5, -16
 132              		.cfi_offset 6, -12
 133              		.cfi_offset 7, -8
 134              		.cfi_offset 14, -4
 135 0002 D646     		mov	lr, r10
 136 0004 4F46     		mov	r7, r9
 137 0006 4646     		mov	r6, r8
 138 0008 C0B5     		push	{r6, r7, lr}
 139              	.LCFI1:
 140              		.cfi_def_cfa_offset 32
 141              		.cfi_offset 8, -32
 142              		.cfi_offset 9, -28
 143              		.cfi_offset 10, -24
 144 000a 0400     		movs	r4, r0
 145 000c 0E00     		movs	r6, r1
 146 000e 1500     		movs	r5, r2
 483:./Drivers/STM32L0xx_HAL_Driver/Src/stm32l0xx_ll_rtc.c ****   /* Check the parameters */
 484:./Drivers/STM32L0xx_HAL_Driver/Src/stm32l0xx_ll_rtc.c ****   assert_param(IS_RTC_ALL_INSTANCE(RTCx));
 485:./Drivers/STM32L0xx_HAL_Driver/Src/stm32l0xx_ll_rtc.c ****   assert_param(IS_LL_RTC_FORMAT(RTC_Format));
 486:./Drivers/STM32L0xx_HAL_Driver/Src/stm32l0xx_ll_rtc.c ****   assert_param(IS_LL_RTC_ALMA_MASK(RTC_AlarmStruct->AlarmMask));
 487:./Drivers/STM32L0xx_HAL_Driver/Src/stm32l0xx_ll_rtc.c ****   assert_param(IS_LL_RTC_ALMA_DATE_WEEKDAY_SEL(RTC_AlarmStruct->AlarmDateWeekDaySel));
 488:./Drivers/STM32L0xx_HAL_Driver/Src/stm32l0xx_ll_rtc.c **** 
ARM GAS  /tmp/ccnIlCuV.s 			page 12


 489:./Drivers/STM32L0xx_HAL_Driver/Src/stm32l0xx_ll_rtc.c ****   if (RTC_Format == LL_RTC_FORMAT_BIN)
 147              		.loc 1 489 0
 148 0010 0029     		cmp	r1, #0
 149 0012 19D1     		bne	.L5
 150              	.LVL4:
 151              	.LBB120:
 152              	.LBB121:
 153              		.file 2 "Drivers/STM32L0xx_HAL_Driver/Inc/stm32l0xx_ll_rtc.h"
   1:Drivers/STM32L0xx_HAL_Driver/Inc/stm32l0xx_ll_rtc.h **** /**
   2:Drivers/STM32L0xx_HAL_Driver/Inc/stm32l0xx_ll_rtc.h ****   ******************************************************************************
   3:Drivers/STM32L0xx_HAL_Driver/Inc/stm32l0xx_ll_rtc.h ****   * @file    stm32l0xx_ll_rtc.h
   4:Drivers/STM32L0xx_HAL_Driver/Inc/stm32l0xx_ll_rtc.h ****   * @author  MCD Application Team
   5:Drivers/STM32L0xx_HAL_Driver/Inc/stm32l0xx_ll_rtc.h ****   * @brief   Header file of RTC LL module.
   6:Drivers/STM32L0xx_HAL_Driver/Inc/stm32l0xx_ll_rtc.h ****   ******************************************************************************
   7:Drivers/STM32L0xx_HAL_Driver/Inc/stm32l0xx_ll_rtc.h ****   * @attention
   8:Drivers/STM32L0xx_HAL_Driver/Inc/stm32l0xx_ll_rtc.h ****   *
   9:Drivers/STM32L0xx_HAL_Driver/Inc/stm32l0xx_ll_rtc.h ****   * <h2><center>&copy; COPYRIGHT(c) 2016 STMicroelectronics</center></h2>
  10:Drivers/STM32L0xx_HAL_Driver/Inc/stm32l0xx_ll_rtc.h ****   *
  11:Drivers/STM32L0xx_HAL_Driver/Inc/stm32l0xx_ll_rtc.h ****   * Redistribution and use in source and binary forms, with or without modification,
  12:Drivers/STM32L0xx_HAL_Driver/Inc/stm32l0xx_ll_rtc.h ****   * are permitted provided that the following conditions are met:
  13:Drivers/STM32L0xx_HAL_Driver/Inc/stm32l0xx_ll_rtc.h ****   *   1. Redistributions of source code must retain the above copyright notice,
  14:Drivers/STM32L0xx_HAL_Driver/Inc/stm32l0xx_ll_rtc.h ****   *      this list of conditions and the following disclaimer.
  15:Drivers/STM32L0xx_HAL_Driver/Inc/stm32l0xx_ll_rtc.h ****   *   2. Redistributions in binary form must reproduce the above copyright notice,
  16:Drivers/STM32L0xx_HAL_Driver/Inc/stm32l0xx_ll_rtc.h ****   *      this list of conditions and the following disclaimer in the documentation
  17:Drivers/STM32L0xx_HAL_Driver/Inc/stm32l0xx_ll_rtc.h ****   *      and/or other materials provided with the distribution.
  18:Drivers/STM32L0xx_HAL_Driver/Inc/stm32l0xx_ll_rtc.h ****   *   3. Neither the name of STMicroelectronics nor the names of its contributors
  19:Drivers/STM32L0xx_HAL_Driver/Inc/stm32l0xx_ll_rtc.h ****   *      may be used to endorse or promote products derived from this software
  20:Drivers/STM32L0xx_HAL_Driver/Inc/stm32l0xx_ll_rtc.h ****   *      without specific prior written permission.
  21:Drivers/STM32L0xx_HAL_Driver/Inc/stm32l0xx_ll_rtc.h ****   *
  22:Drivers/STM32L0xx_HAL_Driver/Inc/stm32l0xx_ll_rtc.h ****   * THIS SOFTWARE IS PROVIDED BY THE COPYRIGHT HOLDERS AND CONTRIBUTORS "AS IS"
  23:Drivers/STM32L0xx_HAL_Driver/Inc/stm32l0xx_ll_rtc.h ****   * AND ANY EXPRESS OR IMPLIED WARRANTIES, INCLUDING, BUT NOT LIMITED TO, THE
  24:Drivers/STM32L0xx_HAL_Driver/Inc/stm32l0xx_ll_rtc.h ****   * IMPLIED WARRANTIES OF MERCHANTABILITY AND FITNESS FOR A PARTICULAR PURPOSE ARE
  25:Drivers/STM32L0xx_HAL_Driver/Inc/stm32l0xx_ll_rtc.h ****   * DISCLAIMED. IN NO EVENT SHALL THE COPYRIGHT HOLDER OR CONTRIBUTORS BE LIABLE
  26:Drivers/STM32L0xx_HAL_Driver/Inc/stm32l0xx_ll_rtc.h ****   * FOR ANY DIRECT, INDIRECT, INCIDENTAL, SPECIAL, EXEMPLARY, OR CONSEQUENTIAL
  27:Drivers/STM32L0xx_HAL_Driver/Inc/stm32l0xx_ll_rtc.h ****   * DAMAGES (INCLUDING, BUT NOT LIMITED TO, PROCUREMENT OF SUBSTITUTE GOODS OR
  28:Drivers/STM32L0xx_HAL_Driver/Inc/stm32l0xx_ll_rtc.h ****   * SERVICES; LOSS OF USE, DATA, OR PROFITS; OR BUSINESS INTERRUPTION) HOWEVER
  29:Drivers/STM32L0xx_HAL_Driver/Inc/stm32l0xx_ll_rtc.h ****   * CAUSED AND ON ANY THEORY OF LIABILITY, WHETHER IN CONTRACT, STRICT LIABILITY,
  30:Drivers/STM32L0xx_HAL_Driver/Inc/stm32l0xx_ll_rtc.h ****   * OR TORT (INCLUDING NEGLIGENCE OR OTHERWISE) ARISING IN ANY WAY OUT OF THE USE
  31:Drivers/STM32L0xx_HAL_Driver/Inc/stm32l0xx_ll_rtc.h ****   * OF THIS SOFTWARE, EVEN IF ADVISED OF THE POSSIBILITY OF SUCH DAMAGE.
  32:Drivers/STM32L0xx_HAL_Driver/Inc/stm32l0xx_ll_rtc.h ****   *
  33:Drivers/STM32L0xx_HAL_Driver/Inc/stm32l0xx_ll_rtc.h ****   ******************************************************************************
  34:Drivers/STM32L0xx_HAL_Driver/Inc/stm32l0xx_ll_rtc.h ****   */
  35:Drivers/STM32L0xx_HAL_Driver/Inc/stm32l0xx_ll_rtc.h **** 
  36:Drivers/STM32L0xx_HAL_Driver/Inc/stm32l0xx_ll_rtc.h **** /* Define to prevent recursive inclusion -------------------------------------*/
  37:Drivers/STM32L0xx_HAL_Driver/Inc/stm32l0xx_ll_rtc.h **** #ifndef __STM32L0xx_LL_RTC_H
  38:Drivers/STM32L0xx_HAL_Driver/Inc/stm32l0xx_ll_rtc.h **** #define __STM32L0xx_LL_RTC_H
  39:Drivers/STM32L0xx_HAL_Driver/Inc/stm32l0xx_ll_rtc.h **** 
  40:Drivers/STM32L0xx_HAL_Driver/Inc/stm32l0xx_ll_rtc.h **** #ifdef __cplusplus
  41:Drivers/STM32L0xx_HAL_Driver/Inc/stm32l0xx_ll_rtc.h **** extern "C" {
  42:Drivers/STM32L0xx_HAL_Driver/Inc/stm32l0xx_ll_rtc.h **** #endif
  43:Drivers/STM32L0xx_HAL_Driver/Inc/stm32l0xx_ll_rtc.h **** 
  44:Drivers/STM32L0xx_HAL_Driver/Inc/stm32l0xx_ll_rtc.h **** /* Includes ------------------------------------------------------------------*/
  45:Drivers/STM32L0xx_HAL_Driver/Inc/stm32l0xx_ll_rtc.h **** #include "stm32l0xx.h"
  46:Drivers/STM32L0xx_HAL_Driver/Inc/stm32l0xx_ll_rtc.h **** 
  47:Drivers/STM32L0xx_HAL_Driver/Inc/stm32l0xx_ll_rtc.h **** /** @addtogroup STM32L0xx_LL_Driver
  48:Drivers/STM32L0xx_HAL_Driver/Inc/stm32l0xx_ll_rtc.h ****   * @{
  49:Drivers/STM32L0xx_HAL_Driver/Inc/stm32l0xx_ll_rtc.h ****   */
ARM GAS  /tmp/ccnIlCuV.s 			page 13


  50:Drivers/STM32L0xx_HAL_Driver/Inc/stm32l0xx_ll_rtc.h **** 
  51:Drivers/STM32L0xx_HAL_Driver/Inc/stm32l0xx_ll_rtc.h **** #if defined(RTC)
  52:Drivers/STM32L0xx_HAL_Driver/Inc/stm32l0xx_ll_rtc.h **** 
  53:Drivers/STM32L0xx_HAL_Driver/Inc/stm32l0xx_ll_rtc.h **** /** @defgroup RTC_LL RTC
  54:Drivers/STM32L0xx_HAL_Driver/Inc/stm32l0xx_ll_rtc.h ****   * @{
  55:Drivers/STM32L0xx_HAL_Driver/Inc/stm32l0xx_ll_rtc.h ****   */
  56:Drivers/STM32L0xx_HAL_Driver/Inc/stm32l0xx_ll_rtc.h **** 
  57:Drivers/STM32L0xx_HAL_Driver/Inc/stm32l0xx_ll_rtc.h **** /* Private types -------------------------------------------------------------*/
  58:Drivers/STM32L0xx_HAL_Driver/Inc/stm32l0xx_ll_rtc.h **** /* Private variables ---------------------------------------------------------*/
  59:Drivers/STM32L0xx_HAL_Driver/Inc/stm32l0xx_ll_rtc.h **** /* Private constants ---------------------------------------------------------*/
  60:Drivers/STM32L0xx_HAL_Driver/Inc/stm32l0xx_ll_rtc.h **** /** @defgroup RTC_LL_Private_Constants RTC Private Constants
  61:Drivers/STM32L0xx_HAL_Driver/Inc/stm32l0xx_ll_rtc.h ****   * @{
  62:Drivers/STM32L0xx_HAL_Driver/Inc/stm32l0xx_ll_rtc.h ****   */
  63:Drivers/STM32L0xx_HAL_Driver/Inc/stm32l0xx_ll_rtc.h **** /* Masks Definition */
  64:Drivers/STM32L0xx_HAL_Driver/Inc/stm32l0xx_ll_rtc.h **** #define RTC_INIT_MASK                 ((uint32_t)0xFFFFFFFFU)
  65:Drivers/STM32L0xx_HAL_Driver/Inc/stm32l0xx_ll_rtc.h **** #define RTC_RSF_MASK                  ((uint32_t)~(RTC_ISR_INIT | RTC_ISR_RSF))
  66:Drivers/STM32L0xx_HAL_Driver/Inc/stm32l0xx_ll_rtc.h **** 
  67:Drivers/STM32L0xx_HAL_Driver/Inc/stm32l0xx_ll_rtc.h **** /* Write protection defines */
  68:Drivers/STM32L0xx_HAL_Driver/Inc/stm32l0xx_ll_rtc.h **** #define RTC_WRITE_PROTECTION_DISABLE  ((uint8_t)0xFFU)
  69:Drivers/STM32L0xx_HAL_Driver/Inc/stm32l0xx_ll_rtc.h **** #define RTC_WRITE_PROTECTION_ENABLE_1 ((uint8_t)0xCAU)
  70:Drivers/STM32L0xx_HAL_Driver/Inc/stm32l0xx_ll_rtc.h **** #define RTC_WRITE_PROTECTION_ENABLE_2 ((uint8_t)0x53U)
  71:Drivers/STM32L0xx_HAL_Driver/Inc/stm32l0xx_ll_rtc.h **** 
  72:Drivers/STM32L0xx_HAL_Driver/Inc/stm32l0xx_ll_rtc.h **** /* Defines used for the bit position in the register and perform offsets */
  73:Drivers/STM32L0xx_HAL_Driver/Inc/stm32l0xx_ll_rtc.h **** #define RTC_POSITION_TR_HT            (uint32_t)20U
  74:Drivers/STM32L0xx_HAL_Driver/Inc/stm32l0xx_ll_rtc.h **** #define RTC_POSITION_TR_HU            (uint32_t)16U
  75:Drivers/STM32L0xx_HAL_Driver/Inc/stm32l0xx_ll_rtc.h **** #define RTC_POSITION_TR_MT            (uint32_t)12U
  76:Drivers/STM32L0xx_HAL_Driver/Inc/stm32l0xx_ll_rtc.h **** #define RTC_POSITION_TR_MU            (uint32_t)8U
  77:Drivers/STM32L0xx_HAL_Driver/Inc/stm32l0xx_ll_rtc.h **** #define RTC_POSITION_TR_ST            (uint32_t)4U
  78:Drivers/STM32L0xx_HAL_Driver/Inc/stm32l0xx_ll_rtc.h **** #define RTC_POSITION_TR_SU            (uint32_t)0U
  79:Drivers/STM32L0xx_HAL_Driver/Inc/stm32l0xx_ll_rtc.h **** #define RTC_POSITION_DR_YT            (uint32_t)20U
  80:Drivers/STM32L0xx_HAL_Driver/Inc/stm32l0xx_ll_rtc.h **** #define RTC_POSITION_DR_YU            (uint32_t)16U
  81:Drivers/STM32L0xx_HAL_Driver/Inc/stm32l0xx_ll_rtc.h **** #define RTC_POSITION_DR_MT            (uint32_t)12U
  82:Drivers/STM32L0xx_HAL_Driver/Inc/stm32l0xx_ll_rtc.h **** #define RTC_POSITION_DR_MU            (uint32_t)8U
  83:Drivers/STM32L0xx_HAL_Driver/Inc/stm32l0xx_ll_rtc.h **** #define RTC_POSITION_DR_DT            (uint32_t)4U
  84:Drivers/STM32L0xx_HAL_Driver/Inc/stm32l0xx_ll_rtc.h **** #define RTC_POSITION_DR_DU            (uint32_t)0U
  85:Drivers/STM32L0xx_HAL_Driver/Inc/stm32l0xx_ll_rtc.h **** #define RTC_POSITION_DR_WDU           (uint32_t)13U
  86:Drivers/STM32L0xx_HAL_Driver/Inc/stm32l0xx_ll_rtc.h **** #define RTC_POSITION_ALMA_DT          (uint32_t)28U
  87:Drivers/STM32L0xx_HAL_Driver/Inc/stm32l0xx_ll_rtc.h **** #define RTC_POSITION_ALMA_DU          (uint32_t)24U
  88:Drivers/STM32L0xx_HAL_Driver/Inc/stm32l0xx_ll_rtc.h **** #define RTC_POSITION_ALMA_HT          (uint32_t)20U
  89:Drivers/STM32L0xx_HAL_Driver/Inc/stm32l0xx_ll_rtc.h **** #define RTC_POSITION_ALMA_HU          (uint32_t)16U
  90:Drivers/STM32L0xx_HAL_Driver/Inc/stm32l0xx_ll_rtc.h **** #define RTC_POSITION_ALMA_MT          (uint32_t)12U
  91:Drivers/STM32L0xx_HAL_Driver/Inc/stm32l0xx_ll_rtc.h **** #define RTC_POSITION_ALMA_MU          (uint32_t)8U
  92:Drivers/STM32L0xx_HAL_Driver/Inc/stm32l0xx_ll_rtc.h **** #define RTC_POSITION_ALMA_SU          (uint32_t)0U
  93:Drivers/STM32L0xx_HAL_Driver/Inc/stm32l0xx_ll_rtc.h **** #define RTC_POSITION_ALMA_ST          (uint32_t)4U
  94:Drivers/STM32L0xx_HAL_Driver/Inc/stm32l0xx_ll_rtc.h **** #define RTC_POSITION_ALMB_DT          (uint32_t)28U
  95:Drivers/STM32L0xx_HAL_Driver/Inc/stm32l0xx_ll_rtc.h **** #define RTC_POSITION_ALMB_DU          (uint32_t)24U
  96:Drivers/STM32L0xx_HAL_Driver/Inc/stm32l0xx_ll_rtc.h **** #define RTC_POSITION_ALMB_HT          (uint32_t)20U
  97:Drivers/STM32L0xx_HAL_Driver/Inc/stm32l0xx_ll_rtc.h **** #define RTC_POSITION_ALMB_HU          (uint32_t)16U
  98:Drivers/STM32L0xx_HAL_Driver/Inc/stm32l0xx_ll_rtc.h **** #define RTC_POSITION_ALMB_MT          (uint32_t)12U
  99:Drivers/STM32L0xx_HAL_Driver/Inc/stm32l0xx_ll_rtc.h **** #define RTC_POSITION_ALMB_MU          (uint32_t)8U
 100:Drivers/STM32L0xx_HAL_Driver/Inc/stm32l0xx_ll_rtc.h **** #define RTC_POSITION_ALMB_SU          (uint32_t)0U
 101:Drivers/STM32L0xx_HAL_Driver/Inc/stm32l0xx_ll_rtc.h **** #define RTC_POSITION_ALMB_ST          (uint32_t)4U
 102:Drivers/STM32L0xx_HAL_Driver/Inc/stm32l0xx_ll_rtc.h **** #define RTC_POSITION_PRER_PREDIV_A    (uint32_t)16U
 103:Drivers/STM32L0xx_HAL_Driver/Inc/stm32l0xx_ll_rtc.h **** #define RTC_POSITION_ALMA_MASKSS      (uint32_t)24U
 104:Drivers/STM32L0xx_HAL_Driver/Inc/stm32l0xx_ll_rtc.h **** #define RTC_POSITION_ALMB_MASKSS      (uint32_t)24U
 105:Drivers/STM32L0xx_HAL_Driver/Inc/stm32l0xx_ll_rtc.h **** #define RTC_POSITION_TS_HU            (uint32_t)16U
 106:Drivers/STM32L0xx_HAL_Driver/Inc/stm32l0xx_ll_rtc.h **** #define RTC_POSITION_TS_MNU           (uint32_t)8U
ARM GAS  /tmp/ccnIlCuV.s 			page 14


 107:Drivers/STM32L0xx_HAL_Driver/Inc/stm32l0xx_ll_rtc.h **** #define RTC_POSITION_TS_WDU           (uint32_t)13U
 108:Drivers/STM32L0xx_HAL_Driver/Inc/stm32l0xx_ll_rtc.h **** #define RTC_POSITION_TS_MU            (uint32_t)8U
 109:Drivers/STM32L0xx_HAL_Driver/Inc/stm32l0xx_ll_rtc.h **** 
 110:Drivers/STM32L0xx_HAL_Driver/Inc/stm32l0xx_ll_rtc.h **** /* Defines used to combine date & time */
 111:Drivers/STM32L0xx_HAL_Driver/Inc/stm32l0xx_ll_rtc.h **** #define RTC_OFFSET_WEEKDAY            (uint32_t)24U
 112:Drivers/STM32L0xx_HAL_Driver/Inc/stm32l0xx_ll_rtc.h **** #define RTC_OFFSET_DAY                (uint32_t)16U
 113:Drivers/STM32L0xx_HAL_Driver/Inc/stm32l0xx_ll_rtc.h **** #define RTC_OFFSET_MONTH              (uint32_t)8U
 114:Drivers/STM32L0xx_HAL_Driver/Inc/stm32l0xx_ll_rtc.h **** #define RTC_OFFSET_HOUR               (uint32_t)16U
 115:Drivers/STM32L0xx_HAL_Driver/Inc/stm32l0xx_ll_rtc.h **** #define RTC_OFFSET_MINUTE             (uint32_t)8U
 116:Drivers/STM32L0xx_HAL_Driver/Inc/stm32l0xx_ll_rtc.h **** 
 117:Drivers/STM32L0xx_HAL_Driver/Inc/stm32l0xx_ll_rtc.h **** /**
 118:Drivers/STM32L0xx_HAL_Driver/Inc/stm32l0xx_ll_rtc.h ****   * @}
 119:Drivers/STM32L0xx_HAL_Driver/Inc/stm32l0xx_ll_rtc.h ****   */
 120:Drivers/STM32L0xx_HAL_Driver/Inc/stm32l0xx_ll_rtc.h **** 
 121:Drivers/STM32L0xx_HAL_Driver/Inc/stm32l0xx_ll_rtc.h **** /* Private macros ------------------------------------------------------------*/
 122:Drivers/STM32L0xx_HAL_Driver/Inc/stm32l0xx_ll_rtc.h **** #if defined(USE_FULL_LL_DRIVER)
 123:Drivers/STM32L0xx_HAL_Driver/Inc/stm32l0xx_ll_rtc.h **** /** @defgroup RTC_LL_Private_Macros RTC Private Macros
 124:Drivers/STM32L0xx_HAL_Driver/Inc/stm32l0xx_ll_rtc.h ****   * @{
 125:Drivers/STM32L0xx_HAL_Driver/Inc/stm32l0xx_ll_rtc.h ****   */
 126:Drivers/STM32L0xx_HAL_Driver/Inc/stm32l0xx_ll_rtc.h **** /**
 127:Drivers/STM32L0xx_HAL_Driver/Inc/stm32l0xx_ll_rtc.h ****   * @}
 128:Drivers/STM32L0xx_HAL_Driver/Inc/stm32l0xx_ll_rtc.h ****   */
 129:Drivers/STM32L0xx_HAL_Driver/Inc/stm32l0xx_ll_rtc.h **** #endif /*USE_FULL_LL_DRIVER*/
 130:Drivers/STM32L0xx_HAL_Driver/Inc/stm32l0xx_ll_rtc.h **** 
 131:Drivers/STM32L0xx_HAL_Driver/Inc/stm32l0xx_ll_rtc.h **** /* Exported types ------------------------------------------------------------*/
 132:Drivers/STM32L0xx_HAL_Driver/Inc/stm32l0xx_ll_rtc.h **** #if defined(USE_FULL_LL_DRIVER)
 133:Drivers/STM32L0xx_HAL_Driver/Inc/stm32l0xx_ll_rtc.h **** /** @defgroup RTC_LL_ES_INIT RTC Exported Init structure
 134:Drivers/STM32L0xx_HAL_Driver/Inc/stm32l0xx_ll_rtc.h ****   * @{
 135:Drivers/STM32L0xx_HAL_Driver/Inc/stm32l0xx_ll_rtc.h ****   */
 136:Drivers/STM32L0xx_HAL_Driver/Inc/stm32l0xx_ll_rtc.h **** 
 137:Drivers/STM32L0xx_HAL_Driver/Inc/stm32l0xx_ll_rtc.h **** /**
 138:Drivers/STM32L0xx_HAL_Driver/Inc/stm32l0xx_ll_rtc.h ****   * @brief  RTC Init structures definition
 139:Drivers/STM32L0xx_HAL_Driver/Inc/stm32l0xx_ll_rtc.h ****   */
 140:Drivers/STM32L0xx_HAL_Driver/Inc/stm32l0xx_ll_rtc.h **** typedef struct
 141:Drivers/STM32L0xx_HAL_Driver/Inc/stm32l0xx_ll_rtc.h **** {
 142:Drivers/STM32L0xx_HAL_Driver/Inc/stm32l0xx_ll_rtc.h ****   uint32_t HourFormat;   /*!< Specifies the RTC Hours Format.
 143:Drivers/STM32L0xx_HAL_Driver/Inc/stm32l0xx_ll_rtc.h ****                               This parameter can be a value of @ref RTC_LL_EC_HOURFORMAT
 144:Drivers/STM32L0xx_HAL_Driver/Inc/stm32l0xx_ll_rtc.h ****                               
 145:Drivers/STM32L0xx_HAL_Driver/Inc/stm32l0xx_ll_rtc.h ****                               This feature can be modified afterwards using unitary function
 146:Drivers/STM32L0xx_HAL_Driver/Inc/stm32l0xx_ll_rtc.h ****                               @ref LL_RTC_SetHourFormat(). */
 147:Drivers/STM32L0xx_HAL_Driver/Inc/stm32l0xx_ll_rtc.h **** 
 148:Drivers/STM32L0xx_HAL_Driver/Inc/stm32l0xx_ll_rtc.h ****   uint32_t AsynchPrescaler; /*!< Specifies the RTC Asynchronous Predivider value.
 149:Drivers/STM32L0xx_HAL_Driver/Inc/stm32l0xx_ll_rtc.h ****                               This parameter must be a number between Min_Data = 0x00 and Max_Data 
 150:Drivers/STM32L0xx_HAL_Driver/Inc/stm32l0xx_ll_rtc.h ****                               
 151:Drivers/STM32L0xx_HAL_Driver/Inc/stm32l0xx_ll_rtc.h ****                               This feature can be modified afterwards using unitary function
 152:Drivers/STM32L0xx_HAL_Driver/Inc/stm32l0xx_ll_rtc.h ****                               @ref LL_RTC_SetAsynchPrescaler(). */
 153:Drivers/STM32L0xx_HAL_Driver/Inc/stm32l0xx_ll_rtc.h **** 
 154:Drivers/STM32L0xx_HAL_Driver/Inc/stm32l0xx_ll_rtc.h ****   uint32_t SynchPrescaler;  /*!< Specifies the RTC Synchronous Predivider value.
 155:Drivers/STM32L0xx_HAL_Driver/Inc/stm32l0xx_ll_rtc.h ****                               This parameter must be a number between Min_Data = 0x00 and Max_Data 
 156:Drivers/STM32L0xx_HAL_Driver/Inc/stm32l0xx_ll_rtc.h ****                               
 157:Drivers/STM32L0xx_HAL_Driver/Inc/stm32l0xx_ll_rtc.h ****                               This feature can be modified afterwards using unitary function
 158:Drivers/STM32L0xx_HAL_Driver/Inc/stm32l0xx_ll_rtc.h ****                               @ref LL_RTC_SetSynchPrescaler(). */
 159:Drivers/STM32L0xx_HAL_Driver/Inc/stm32l0xx_ll_rtc.h **** } LL_RTC_InitTypeDef;
 160:Drivers/STM32L0xx_HAL_Driver/Inc/stm32l0xx_ll_rtc.h **** 
 161:Drivers/STM32L0xx_HAL_Driver/Inc/stm32l0xx_ll_rtc.h **** /**
 162:Drivers/STM32L0xx_HAL_Driver/Inc/stm32l0xx_ll_rtc.h ****   * @brief  RTC Time structure definition
 163:Drivers/STM32L0xx_HAL_Driver/Inc/stm32l0xx_ll_rtc.h ****   */
ARM GAS  /tmp/ccnIlCuV.s 			page 15


 164:Drivers/STM32L0xx_HAL_Driver/Inc/stm32l0xx_ll_rtc.h **** typedef struct
 165:Drivers/STM32L0xx_HAL_Driver/Inc/stm32l0xx_ll_rtc.h **** {
 166:Drivers/STM32L0xx_HAL_Driver/Inc/stm32l0xx_ll_rtc.h ****   uint32_t TimeFormat; /*!< Specifies the RTC AM/PM Time.
 167:Drivers/STM32L0xx_HAL_Driver/Inc/stm32l0xx_ll_rtc.h ****                             This parameter can be a value of @ref RTC_LL_EC_TIME_FORMAT
 168:Drivers/STM32L0xx_HAL_Driver/Inc/stm32l0xx_ll_rtc.h **** 
 169:Drivers/STM32L0xx_HAL_Driver/Inc/stm32l0xx_ll_rtc.h ****                             This feature can be modified afterwards using unitary function @ref LL_
 170:Drivers/STM32L0xx_HAL_Driver/Inc/stm32l0xx_ll_rtc.h **** 
 171:Drivers/STM32L0xx_HAL_Driver/Inc/stm32l0xx_ll_rtc.h ****   uint8_t Hours;       /*!< Specifies the RTC Time Hours.
 172:Drivers/STM32L0xx_HAL_Driver/Inc/stm32l0xx_ll_rtc.h ****                             This parameter must be a number between Min_Data = 0 and Max_Data = 12 
 173:Drivers/STM32L0xx_HAL_Driver/Inc/stm32l0xx_ll_rtc.h ****                             This parameter must be a number between Min_Data = 0 and Max_Data = 23 
 174:Drivers/STM32L0xx_HAL_Driver/Inc/stm32l0xx_ll_rtc.h **** 
 175:Drivers/STM32L0xx_HAL_Driver/Inc/stm32l0xx_ll_rtc.h ****                             This feature can be modified afterwards using unitary function @ref LL_
 176:Drivers/STM32L0xx_HAL_Driver/Inc/stm32l0xx_ll_rtc.h **** 
 177:Drivers/STM32L0xx_HAL_Driver/Inc/stm32l0xx_ll_rtc.h ****   uint8_t Minutes;     /*!< Specifies the RTC Time Minutes.
 178:Drivers/STM32L0xx_HAL_Driver/Inc/stm32l0xx_ll_rtc.h ****                             This parameter must be a number between Min_Data = 0 and Max_Data = 59
 179:Drivers/STM32L0xx_HAL_Driver/Inc/stm32l0xx_ll_rtc.h **** 
 180:Drivers/STM32L0xx_HAL_Driver/Inc/stm32l0xx_ll_rtc.h ****                             This feature can be modified afterwards using unitary function @ref LL_
 181:Drivers/STM32L0xx_HAL_Driver/Inc/stm32l0xx_ll_rtc.h **** 
 182:Drivers/STM32L0xx_HAL_Driver/Inc/stm32l0xx_ll_rtc.h ****   uint8_t Seconds;     /*!< Specifies the RTC Time Seconds.
 183:Drivers/STM32L0xx_HAL_Driver/Inc/stm32l0xx_ll_rtc.h ****                             This parameter must be a number between Min_Data = 0 and Max_Data = 59
 184:Drivers/STM32L0xx_HAL_Driver/Inc/stm32l0xx_ll_rtc.h **** 
 185:Drivers/STM32L0xx_HAL_Driver/Inc/stm32l0xx_ll_rtc.h ****                             This feature can be modified afterwards using unitary function @ref LL_
 186:Drivers/STM32L0xx_HAL_Driver/Inc/stm32l0xx_ll_rtc.h **** } LL_RTC_TimeTypeDef;
 187:Drivers/STM32L0xx_HAL_Driver/Inc/stm32l0xx_ll_rtc.h **** 
 188:Drivers/STM32L0xx_HAL_Driver/Inc/stm32l0xx_ll_rtc.h **** /**
 189:Drivers/STM32L0xx_HAL_Driver/Inc/stm32l0xx_ll_rtc.h ****   * @brief  RTC Date structure definition
 190:Drivers/STM32L0xx_HAL_Driver/Inc/stm32l0xx_ll_rtc.h ****   */
 191:Drivers/STM32L0xx_HAL_Driver/Inc/stm32l0xx_ll_rtc.h **** typedef struct
 192:Drivers/STM32L0xx_HAL_Driver/Inc/stm32l0xx_ll_rtc.h **** {
 193:Drivers/STM32L0xx_HAL_Driver/Inc/stm32l0xx_ll_rtc.h ****   uint8_t WeekDay;  /*!< Specifies the RTC Date WeekDay.
 194:Drivers/STM32L0xx_HAL_Driver/Inc/stm32l0xx_ll_rtc.h ****                          This parameter can be a value of @ref RTC_LL_EC_WEEKDAY
 195:Drivers/STM32L0xx_HAL_Driver/Inc/stm32l0xx_ll_rtc.h **** 
 196:Drivers/STM32L0xx_HAL_Driver/Inc/stm32l0xx_ll_rtc.h ****                          This feature can be modified afterwards using unitary function @ref LL_RTC
 197:Drivers/STM32L0xx_HAL_Driver/Inc/stm32l0xx_ll_rtc.h **** 
 198:Drivers/STM32L0xx_HAL_Driver/Inc/stm32l0xx_ll_rtc.h ****   uint8_t Month;    /*!< Specifies the RTC Date Month.
 199:Drivers/STM32L0xx_HAL_Driver/Inc/stm32l0xx_ll_rtc.h ****                          This parameter can be a value of @ref RTC_LL_EC_MONTH
 200:Drivers/STM32L0xx_HAL_Driver/Inc/stm32l0xx_ll_rtc.h **** 
 201:Drivers/STM32L0xx_HAL_Driver/Inc/stm32l0xx_ll_rtc.h ****                          This feature can be modified afterwards using unitary function @ref LL_RTC
 202:Drivers/STM32L0xx_HAL_Driver/Inc/stm32l0xx_ll_rtc.h **** 
 203:Drivers/STM32L0xx_HAL_Driver/Inc/stm32l0xx_ll_rtc.h ****   uint8_t Day;      /*!< Specifies the RTC Date Day.
 204:Drivers/STM32L0xx_HAL_Driver/Inc/stm32l0xx_ll_rtc.h ****                          This parameter must be a number between Min_Data = 1 and Max_Data = 31
 205:Drivers/STM32L0xx_HAL_Driver/Inc/stm32l0xx_ll_rtc.h **** 
 206:Drivers/STM32L0xx_HAL_Driver/Inc/stm32l0xx_ll_rtc.h ****                          This feature can be modified afterwards using unitary function @ref LL_RTC
 207:Drivers/STM32L0xx_HAL_Driver/Inc/stm32l0xx_ll_rtc.h **** 
 208:Drivers/STM32L0xx_HAL_Driver/Inc/stm32l0xx_ll_rtc.h ****   uint8_t Year;     /*!< Specifies the RTC Date Year.
 209:Drivers/STM32L0xx_HAL_Driver/Inc/stm32l0xx_ll_rtc.h ****                          This parameter must be a number between Min_Data = 0 and Max_Data = 99
 210:Drivers/STM32L0xx_HAL_Driver/Inc/stm32l0xx_ll_rtc.h **** 
 211:Drivers/STM32L0xx_HAL_Driver/Inc/stm32l0xx_ll_rtc.h ****                          This feature can be modified afterwards using unitary function @ref LL_RTC
 212:Drivers/STM32L0xx_HAL_Driver/Inc/stm32l0xx_ll_rtc.h **** } LL_RTC_DateTypeDef;
 213:Drivers/STM32L0xx_HAL_Driver/Inc/stm32l0xx_ll_rtc.h **** 
 214:Drivers/STM32L0xx_HAL_Driver/Inc/stm32l0xx_ll_rtc.h **** /**
 215:Drivers/STM32L0xx_HAL_Driver/Inc/stm32l0xx_ll_rtc.h ****   * @brief  RTC Alarm structure definition
 216:Drivers/STM32L0xx_HAL_Driver/Inc/stm32l0xx_ll_rtc.h ****   */
 217:Drivers/STM32L0xx_HAL_Driver/Inc/stm32l0xx_ll_rtc.h **** typedef struct
 218:Drivers/STM32L0xx_HAL_Driver/Inc/stm32l0xx_ll_rtc.h **** {
 219:Drivers/STM32L0xx_HAL_Driver/Inc/stm32l0xx_ll_rtc.h ****   LL_RTC_TimeTypeDef AlarmTime;  /*!< Specifies the RTC Alarm Time members. */
 220:Drivers/STM32L0xx_HAL_Driver/Inc/stm32l0xx_ll_rtc.h **** 
ARM GAS  /tmp/ccnIlCuV.s 			page 16


 221:Drivers/STM32L0xx_HAL_Driver/Inc/stm32l0xx_ll_rtc.h ****   uint32_t AlarmMask;            /*!< Specifies the RTC Alarm Masks.
 222:Drivers/STM32L0xx_HAL_Driver/Inc/stm32l0xx_ll_rtc.h ****                                       This parameter can be a value of @ref RTC_LL_EC_ALMA_MASK for
 223:Drivers/STM32L0xx_HAL_Driver/Inc/stm32l0xx_ll_rtc.h **** 
 224:Drivers/STM32L0xx_HAL_Driver/Inc/stm32l0xx_ll_rtc.h ****                                       This feature can be modified afterwards using unitary functio
 225:Drivers/STM32L0xx_HAL_Driver/Inc/stm32l0xx_ll_rtc.h ****                                       or @ref LL_RTC_ALMB_SetMask() for ALARM B
 226:Drivers/STM32L0xx_HAL_Driver/Inc/stm32l0xx_ll_rtc.h ****                                  */
 227:Drivers/STM32L0xx_HAL_Driver/Inc/stm32l0xx_ll_rtc.h **** 
 228:Drivers/STM32L0xx_HAL_Driver/Inc/stm32l0xx_ll_rtc.h ****   uint32_t AlarmDateWeekDaySel;  /*!< Specifies the RTC Alarm is on day or WeekDay.
 229:Drivers/STM32L0xx_HAL_Driver/Inc/stm32l0xx_ll_rtc.h ****                                       This parameter can be a value of @ref RTC_LL_EC_ALMA_WEEKDAY_
 230:Drivers/STM32L0xx_HAL_Driver/Inc/stm32l0xx_ll_rtc.h **** 
 231:Drivers/STM32L0xx_HAL_Driver/Inc/stm32l0xx_ll_rtc.h ****                                       This feature can be modified afterwards using unitary functio
 232:Drivers/STM32L0xx_HAL_Driver/Inc/stm32l0xx_ll_rtc.h ****                                       for ALARM A or @ref LL_RTC_ALMB_EnableWeekday() or @ref LL_RT
 233:Drivers/STM32L0xx_HAL_Driver/Inc/stm32l0xx_ll_rtc.h ****                                  */
 234:Drivers/STM32L0xx_HAL_Driver/Inc/stm32l0xx_ll_rtc.h **** 
 235:Drivers/STM32L0xx_HAL_Driver/Inc/stm32l0xx_ll_rtc.h ****   uint8_t AlarmDateWeekDay;      /*!< Specifies the RTC Alarm Day/WeekDay.
 236:Drivers/STM32L0xx_HAL_Driver/Inc/stm32l0xx_ll_rtc.h ****                                       If AlarmDateWeekDaySel set to day, this parameter  must be a 
 237:Drivers/STM32L0xx_HAL_Driver/Inc/stm32l0xx_ll_rtc.h **** 
 238:Drivers/STM32L0xx_HAL_Driver/Inc/stm32l0xx_ll_rtc.h ****                                       This feature can be modified afterwards using unitary functio
 239:Drivers/STM32L0xx_HAL_Driver/Inc/stm32l0xx_ll_rtc.h ****                                       for ALARM A or @ref LL_RTC_ALMB_SetDay() for ALARM B.
 240:Drivers/STM32L0xx_HAL_Driver/Inc/stm32l0xx_ll_rtc.h **** 
 241:Drivers/STM32L0xx_HAL_Driver/Inc/stm32l0xx_ll_rtc.h ****                                       If AlarmDateWeekDaySel set to Weekday, this parameter can be 
 242:Drivers/STM32L0xx_HAL_Driver/Inc/stm32l0xx_ll_rtc.h **** 
 243:Drivers/STM32L0xx_HAL_Driver/Inc/stm32l0xx_ll_rtc.h ****                                       This feature can be modified afterwards using unitary functio
 244:Drivers/STM32L0xx_HAL_Driver/Inc/stm32l0xx_ll_rtc.h ****                                       for ALARM A or @ref LL_RTC_ALMB_SetWeekDay() for ALARM B.
 245:Drivers/STM32L0xx_HAL_Driver/Inc/stm32l0xx_ll_rtc.h ****                                  */
 246:Drivers/STM32L0xx_HAL_Driver/Inc/stm32l0xx_ll_rtc.h **** } LL_RTC_AlarmTypeDef;
 247:Drivers/STM32L0xx_HAL_Driver/Inc/stm32l0xx_ll_rtc.h **** 
 248:Drivers/STM32L0xx_HAL_Driver/Inc/stm32l0xx_ll_rtc.h **** /**
 249:Drivers/STM32L0xx_HAL_Driver/Inc/stm32l0xx_ll_rtc.h ****   * @}
 250:Drivers/STM32L0xx_HAL_Driver/Inc/stm32l0xx_ll_rtc.h ****   */
 251:Drivers/STM32L0xx_HAL_Driver/Inc/stm32l0xx_ll_rtc.h **** #endif /* USE_FULL_LL_DRIVER */
 252:Drivers/STM32L0xx_HAL_Driver/Inc/stm32l0xx_ll_rtc.h **** 
 253:Drivers/STM32L0xx_HAL_Driver/Inc/stm32l0xx_ll_rtc.h **** /* Exported constants --------------------------------------------------------*/
 254:Drivers/STM32L0xx_HAL_Driver/Inc/stm32l0xx_ll_rtc.h **** /** @defgroup RTC_LL_Exported_Constants RTC Exported Constants
 255:Drivers/STM32L0xx_HAL_Driver/Inc/stm32l0xx_ll_rtc.h ****   * @{
 256:Drivers/STM32L0xx_HAL_Driver/Inc/stm32l0xx_ll_rtc.h ****   */
 257:Drivers/STM32L0xx_HAL_Driver/Inc/stm32l0xx_ll_rtc.h **** 
 258:Drivers/STM32L0xx_HAL_Driver/Inc/stm32l0xx_ll_rtc.h **** #if defined(USE_FULL_LL_DRIVER)
 259:Drivers/STM32L0xx_HAL_Driver/Inc/stm32l0xx_ll_rtc.h **** /** @defgroup RTC_LL_EC_FORMAT FORMAT
 260:Drivers/STM32L0xx_HAL_Driver/Inc/stm32l0xx_ll_rtc.h ****   * @{
 261:Drivers/STM32L0xx_HAL_Driver/Inc/stm32l0xx_ll_rtc.h ****   */
 262:Drivers/STM32L0xx_HAL_Driver/Inc/stm32l0xx_ll_rtc.h **** #define LL_RTC_FORMAT_BIN                  ((uint32_t)0x000000000U) /*!< Binary data format */
 263:Drivers/STM32L0xx_HAL_Driver/Inc/stm32l0xx_ll_rtc.h **** #define LL_RTC_FORMAT_BCD                  ((uint32_t)0x000000001U) /*!< BCD data format */
 264:Drivers/STM32L0xx_HAL_Driver/Inc/stm32l0xx_ll_rtc.h **** /**
 265:Drivers/STM32L0xx_HAL_Driver/Inc/stm32l0xx_ll_rtc.h ****   * @}
 266:Drivers/STM32L0xx_HAL_Driver/Inc/stm32l0xx_ll_rtc.h ****   */
 267:Drivers/STM32L0xx_HAL_Driver/Inc/stm32l0xx_ll_rtc.h **** 
 268:Drivers/STM32L0xx_HAL_Driver/Inc/stm32l0xx_ll_rtc.h **** /** @defgroup RTC_LL_EC_ALMA_WEEKDAY_SELECTION RTC Alarm A Date WeekDay
 269:Drivers/STM32L0xx_HAL_Driver/Inc/stm32l0xx_ll_rtc.h ****   * @{
 270:Drivers/STM32L0xx_HAL_Driver/Inc/stm32l0xx_ll_rtc.h ****   */
 271:Drivers/STM32L0xx_HAL_Driver/Inc/stm32l0xx_ll_rtc.h **** #define LL_RTC_ALMA_DATEWEEKDAYSEL_DATE    ((uint32_t)0x00000000U) /*!< Alarm A Date is selected */
 272:Drivers/STM32L0xx_HAL_Driver/Inc/stm32l0xx_ll_rtc.h **** #define LL_RTC_ALMA_DATEWEEKDAYSEL_WEEKDAY RTC_ALRMAR_WDSEL        /*!< Alarm A WeekDay is selected
 273:Drivers/STM32L0xx_HAL_Driver/Inc/stm32l0xx_ll_rtc.h **** /**
 274:Drivers/STM32L0xx_HAL_Driver/Inc/stm32l0xx_ll_rtc.h ****   * @}
 275:Drivers/STM32L0xx_HAL_Driver/Inc/stm32l0xx_ll_rtc.h ****   */
 276:Drivers/STM32L0xx_HAL_Driver/Inc/stm32l0xx_ll_rtc.h **** 
 277:Drivers/STM32L0xx_HAL_Driver/Inc/stm32l0xx_ll_rtc.h **** /** @defgroup RTC_LL_EC_ALMB_WEEKDAY_SELECTION RTC Alarm B Date WeekDay
ARM GAS  /tmp/ccnIlCuV.s 			page 17


 278:Drivers/STM32L0xx_HAL_Driver/Inc/stm32l0xx_ll_rtc.h ****   * @{
 279:Drivers/STM32L0xx_HAL_Driver/Inc/stm32l0xx_ll_rtc.h ****   */
 280:Drivers/STM32L0xx_HAL_Driver/Inc/stm32l0xx_ll_rtc.h **** #define LL_RTC_ALMB_DATEWEEKDAYSEL_DATE    ((uint32_t)0x00000000U) /*!< Alarm B Date is selected */
 281:Drivers/STM32L0xx_HAL_Driver/Inc/stm32l0xx_ll_rtc.h **** #define LL_RTC_ALMB_DATEWEEKDAYSEL_WEEKDAY RTC_ALRMBR_WDSEL        /*!< Alarm B WeekDay is selected
 282:Drivers/STM32L0xx_HAL_Driver/Inc/stm32l0xx_ll_rtc.h **** /**
 283:Drivers/STM32L0xx_HAL_Driver/Inc/stm32l0xx_ll_rtc.h ****   * @}
 284:Drivers/STM32L0xx_HAL_Driver/Inc/stm32l0xx_ll_rtc.h ****   */
 285:Drivers/STM32L0xx_HAL_Driver/Inc/stm32l0xx_ll_rtc.h **** 
 286:Drivers/STM32L0xx_HAL_Driver/Inc/stm32l0xx_ll_rtc.h **** #endif /* USE_FULL_LL_DRIVER */
 287:Drivers/STM32L0xx_HAL_Driver/Inc/stm32l0xx_ll_rtc.h **** 
 288:Drivers/STM32L0xx_HAL_Driver/Inc/stm32l0xx_ll_rtc.h **** /** @defgroup RTC_LL_EC_GET_FLAG Get Flags Defines
 289:Drivers/STM32L0xx_HAL_Driver/Inc/stm32l0xx_ll_rtc.h ****   * @brief    Flags defines which can be used with LL_RTC_ReadReg function
 290:Drivers/STM32L0xx_HAL_Driver/Inc/stm32l0xx_ll_rtc.h ****   * @{
 291:Drivers/STM32L0xx_HAL_Driver/Inc/stm32l0xx_ll_rtc.h ****   */
 292:Drivers/STM32L0xx_HAL_Driver/Inc/stm32l0xx_ll_rtc.h **** #define LL_RTC_ISR_RECALPF                 RTC_ISR_RECALPF
 293:Drivers/STM32L0xx_HAL_Driver/Inc/stm32l0xx_ll_rtc.h **** #define LL_RTC_ISR_TAMP3F                  RTC_ISR_TAMP3F
 294:Drivers/STM32L0xx_HAL_Driver/Inc/stm32l0xx_ll_rtc.h **** #define LL_RTC_ISR_TAMP2F                  RTC_ISR_TAMP2F
 295:Drivers/STM32L0xx_HAL_Driver/Inc/stm32l0xx_ll_rtc.h **** #define LL_RTC_ISR_TAMP1F                  RTC_ISR_TAMP1F
 296:Drivers/STM32L0xx_HAL_Driver/Inc/stm32l0xx_ll_rtc.h **** #define LL_RTC_ISR_TSOVF                   RTC_ISR_TSOVF
 297:Drivers/STM32L0xx_HAL_Driver/Inc/stm32l0xx_ll_rtc.h **** #define LL_RTC_ISR_TSF                     RTC_ISR_TSF
 298:Drivers/STM32L0xx_HAL_Driver/Inc/stm32l0xx_ll_rtc.h **** #define LL_RTC_ISR_WUTF                    RTC_ISR_WUTF
 299:Drivers/STM32L0xx_HAL_Driver/Inc/stm32l0xx_ll_rtc.h **** #define LL_RTC_ISR_ALRBF                   RTC_ISR_ALRBF
 300:Drivers/STM32L0xx_HAL_Driver/Inc/stm32l0xx_ll_rtc.h **** #define LL_RTC_ISR_ALRAF                   RTC_ISR_ALRAF
 301:Drivers/STM32L0xx_HAL_Driver/Inc/stm32l0xx_ll_rtc.h **** #define LL_RTC_ISR_INITF                   RTC_ISR_INITF
 302:Drivers/STM32L0xx_HAL_Driver/Inc/stm32l0xx_ll_rtc.h **** #define LL_RTC_ISR_RSF                     RTC_ISR_RSF
 303:Drivers/STM32L0xx_HAL_Driver/Inc/stm32l0xx_ll_rtc.h **** #define LL_RTC_ISR_INITS                   RTC_ISR_INITS
 304:Drivers/STM32L0xx_HAL_Driver/Inc/stm32l0xx_ll_rtc.h **** #define LL_RTC_ISR_SHPF                    RTC_ISR_SHPF
 305:Drivers/STM32L0xx_HAL_Driver/Inc/stm32l0xx_ll_rtc.h **** #define LL_RTC_ISR_WUTWF                   RTC_ISR_WUTWF
 306:Drivers/STM32L0xx_HAL_Driver/Inc/stm32l0xx_ll_rtc.h **** #define LL_RTC_ISR_ALRBWF                  RTC_ISR_ALRBWF
 307:Drivers/STM32L0xx_HAL_Driver/Inc/stm32l0xx_ll_rtc.h **** #define LL_RTC_ISR_ALRAWF                  RTC_ISR_ALRAWF
 308:Drivers/STM32L0xx_HAL_Driver/Inc/stm32l0xx_ll_rtc.h **** /**
 309:Drivers/STM32L0xx_HAL_Driver/Inc/stm32l0xx_ll_rtc.h ****   * @}
 310:Drivers/STM32L0xx_HAL_Driver/Inc/stm32l0xx_ll_rtc.h ****   */
 311:Drivers/STM32L0xx_HAL_Driver/Inc/stm32l0xx_ll_rtc.h **** 
 312:Drivers/STM32L0xx_HAL_Driver/Inc/stm32l0xx_ll_rtc.h **** /** @defgroup RTC_LL_EC_IT IT Defines
 313:Drivers/STM32L0xx_HAL_Driver/Inc/stm32l0xx_ll_rtc.h ****   * @brief    IT defines which can be used with LL_RTC_ReadReg and  LL_RTC_WriteReg functions
 314:Drivers/STM32L0xx_HAL_Driver/Inc/stm32l0xx_ll_rtc.h ****   * @{
 315:Drivers/STM32L0xx_HAL_Driver/Inc/stm32l0xx_ll_rtc.h ****   */
 316:Drivers/STM32L0xx_HAL_Driver/Inc/stm32l0xx_ll_rtc.h **** #define LL_RTC_CR_TSIE                     RTC_CR_TSIE
 317:Drivers/STM32L0xx_HAL_Driver/Inc/stm32l0xx_ll_rtc.h **** #define LL_RTC_CR_WUTIE                    RTC_CR_WUTIE
 318:Drivers/STM32L0xx_HAL_Driver/Inc/stm32l0xx_ll_rtc.h **** #define LL_RTC_CR_ALRBIE                   RTC_CR_ALRBIE
 319:Drivers/STM32L0xx_HAL_Driver/Inc/stm32l0xx_ll_rtc.h **** #define LL_RTC_CR_ALRAIE                   RTC_CR_ALRAIE
 320:Drivers/STM32L0xx_HAL_Driver/Inc/stm32l0xx_ll_rtc.h **** #define LL_RTC_TAMPCR_TAMP3IE              RTC_TAMPCR_TAMP3IE
 321:Drivers/STM32L0xx_HAL_Driver/Inc/stm32l0xx_ll_rtc.h **** #define LL_RTC_TAMPCR_TAMP2IE              RTC_TAMPCR_TAMP2IE
 322:Drivers/STM32L0xx_HAL_Driver/Inc/stm32l0xx_ll_rtc.h **** #define LL_RTC_TAMPCR_TAMP1IE              RTC_TAMPCR_TAMP1IE
 323:Drivers/STM32L0xx_HAL_Driver/Inc/stm32l0xx_ll_rtc.h **** #define LL_RTC_TAMPCR_TAMPIE               RTC_TAMPCR_TAMPIE
 324:Drivers/STM32L0xx_HAL_Driver/Inc/stm32l0xx_ll_rtc.h **** /**
 325:Drivers/STM32L0xx_HAL_Driver/Inc/stm32l0xx_ll_rtc.h ****   * @}
 326:Drivers/STM32L0xx_HAL_Driver/Inc/stm32l0xx_ll_rtc.h ****   */
 327:Drivers/STM32L0xx_HAL_Driver/Inc/stm32l0xx_ll_rtc.h **** 
 328:Drivers/STM32L0xx_HAL_Driver/Inc/stm32l0xx_ll_rtc.h **** /** @defgroup RTC_LL_EC_WEEKDAY  WEEK DAY
 329:Drivers/STM32L0xx_HAL_Driver/Inc/stm32l0xx_ll_rtc.h ****   * @{
 330:Drivers/STM32L0xx_HAL_Driver/Inc/stm32l0xx_ll_rtc.h ****   */
 331:Drivers/STM32L0xx_HAL_Driver/Inc/stm32l0xx_ll_rtc.h **** #define LL_RTC_WEEKDAY_MONDAY              ((uint8_t)0x01U) /*!< Monday    */
 332:Drivers/STM32L0xx_HAL_Driver/Inc/stm32l0xx_ll_rtc.h **** #define LL_RTC_WEEKDAY_TUESDAY             ((uint8_t)0x02U) /*!< Tuesday   */
 333:Drivers/STM32L0xx_HAL_Driver/Inc/stm32l0xx_ll_rtc.h **** #define LL_RTC_WEEKDAY_WEDNESDAY           ((uint8_t)0x03U) /*!< Wednesday */
 334:Drivers/STM32L0xx_HAL_Driver/Inc/stm32l0xx_ll_rtc.h **** #define LL_RTC_WEEKDAY_THURSDAY            ((uint8_t)0x04U) /*!< Thrusday  */
ARM GAS  /tmp/ccnIlCuV.s 			page 18


 335:Drivers/STM32L0xx_HAL_Driver/Inc/stm32l0xx_ll_rtc.h **** #define LL_RTC_WEEKDAY_FRIDAY              ((uint8_t)0x05U) /*!< Friday    */
 336:Drivers/STM32L0xx_HAL_Driver/Inc/stm32l0xx_ll_rtc.h **** #define LL_RTC_WEEKDAY_SATURDAY            ((uint8_t)0x06U) /*!< Saturday  */
 337:Drivers/STM32L0xx_HAL_Driver/Inc/stm32l0xx_ll_rtc.h **** #define LL_RTC_WEEKDAY_SUNDAY              ((uint8_t)0x07U) /*!< Sunday    */
 338:Drivers/STM32L0xx_HAL_Driver/Inc/stm32l0xx_ll_rtc.h **** /**
 339:Drivers/STM32L0xx_HAL_Driver/Inc/stm32l0xx_ll_rtc.h ****   * @}
 340:Drivers/STM32L0xx_HAL_Driver/Inc/stm32l0xx_ll_rtc.h ****   */
 341:Drivers/STM32L0xx_HAL_Driver/Inc/stm32l0xx_ll_rtc.h **** 
 342:Drivers/STM32L0xx_HAL_Driver/Inc/stm32l0xx_ll_rtc.h **** /** @defgroup RTC_LL_EC_MONTH  MONTH
 343:Drivers/STM32L0xx_HAL_Driver/Inc/stm32l0xx_ll_rtc.h ****   * @{
 344:Drivers/STM32L0xx_HAL_Driver/Inc/stm32l0xx_ll_rtc.h ****   */
 345:Drivers/STM32L0xx_HAL_Driver/Inc/stm32l0xx_ll_rtc.h **** #define LL_RTC_MONTH_JANUARY               ((uint8_t)0x01U)  /*!< January   */
 346:Drivers/STM32L0xx_HAL_Driver/Inc/stm32l0xx_ll_rtc.h **** #define LL_RTC_MONTH_FEBRUARY              ((uint8_t)0x02U)  /*!< February  */
 347:Drivers/STM32L0xx_HAL_Driver/Inc/stm32l0xx_ll_rtc.h **** #define LL_RTC_MONTH_MARCH                 ((uint8_t)0x03U)  /*!< March     */
 348:Drivers/STM32L0xx_HAL_Driver/Inc/stm32l0xx_ll_rtc.h **** #define LL_RTC_MONTH_APRIL                 ((uint8_t)0x04U)  /*!< April     */
 349:Drivers/STM32L0xx_HAL_Driver/Inc/stm32l0xx_ll_rtc.h **** #define LL_RTC_MONTH_MAY                   ((uint8_t)0x05U)  /*!< May       */
 350:Drivers/STM32L0xx_HAL_Driver/Inc/stm32l0xx_ll_rtc.h **** #define LL_RTC_MONTH_JUNE                  ((uint8_t)0x06U)  /*!< June      */
 351:Drivers/STM32L0xx_HAL_Driver/Inc/stm32l0xx_ll_rtc.h **** #define LL_RTC_MONTH_JULY                  ((uint8_t)0x07U)  /*!< July      */
 352:Drivers/STM32L0xx_HAL_Driver/Inc/stm32l0xx_ll_rtc.h **** #define LL_RTC_MONTH_AUGUST                ((uint8_t)0x08U)  /*!< August    */
 353:Drivers/STM32L0xx_HAL_Driver/Inc/stm32l0xx_ll_rtc.h **** #define LL_RTC_MONTH_SEPTEMBER             ((uint8_t)0x09U)  /*!< September */
 354:Drivers/STM32L0xx_HAL_Driver/Inc/stm32l0xx_ll_rtc.h **** #define LL_RTC_MONTH_OCTOBER               ((uint8_t)0x10U)  /*!< October   */
 355:Drivers/STM32L0xx_HAL_Driver/Inc/stm32l0xx_ll_rtc.h **** #define LL_RTC_MONTH_NOVEMBER              ((uint8_t)0x11U)  /*!< November  */
 356:Drivers/STM32L0xx_HAL_Driver/Inc/stm32l0xx_ll_rtc.h **** #define LL_RTC_MONTH_DECEMBER              ((uint8_t)0x12U)  /*!< December  */
 357:Drivers/STM32L0xx_HAL_Driver/Inc/stm32l0xx_ll_rtc.h **** /**
 358:Drivers/STM32L0xx_HAL_Driver/Inc/stm32l0xx_ll_rtc.h ****   * @}
 359:Drivers/STM32L0xx_HAL_Driver/Inc/stm32l0xx_ll_rtc.h ****   */
 360:Drivers/STM32L0xx_HAL_Driver/Inc/stm32l0xx_ll_rtc.h **** 
 361:Drivers/STM32L0xx_HAL_Driver/Inc/stm32l0xx_ll_rtc.h **** /** @defgroup RTC_LL_EC_HOURFORMAT  HOUR FORMAT
 362:Drivers/STM32L0xx_HAL_Driver/Inc/stm32l0xx_ll_rtc.h ****   * @{
 363:Drivers/STM32L0xx_HAL_Driver/Inc/stm32l0xx_ll_rtc.h ****   */
 364:Drivers/STM32L0xx_HAL_Driver/Inc/stm32l0xx_ll_rtc.h **** #define LL_RTC_HOURFORMAT_24HOUR           (uint32_t)0x00000000U /*!< 24 hour/day format */
 365:Drivers/STM32L0xx_HAL_Driver/Inc/stm32l0xx_ll_rtc.h **** #define LL_RTC_HOURFORMAT_AMPM             RTC_CR_FMT            /*!< AM/PM hour format */
 366:Drivers/STM32L0xx_HAL_Driver/Inc/stm32l0xx_ll_rtc.h **** /**
 367:Drivers/STM32L0xx_HAL_Driver/Inc/stm32l0xx_ll_rtc.h ****   * @}
 368:Drivers/STM32L0xx_HAL_Driver/Inc/stm32l0xx_ll_rtc.h ****   */
 369:Drivers/STM32L0xx_HAL_Driver/Inc/stm32l0xx_ll_rtc.h **** 
 370:Drivers/STM32L0xx_HAL_Driver/Inc/stm32l0xx_ll_rtc.h **** /** @defgroup RTC_LL_EC_ALARMOUT  ALARM OUTPUT
 371:Drivers/STM32L0xx_HAL_Driver/Inc/stm32l0xx_ll_rtc.h ****   * @{
 372:Drivers/STM32L0xx_HAL_Driver/Inc/stm32l0xx_ll_rtc.h ****   */
 373:Drivers/STM32L0xx_HAL_Driver/Inc/stm32l0xx_ll_rtc.h **** #define LL_RTC_ALARMOUT_DISABLE            ((uint32_t)0x00000000U) /*!< Output disabled */
 374:Drivers/STM32L0xx_HAL_Driver/Inc/stm32l0xx_ll_rtc.h **** #define LL_RTC_ALARMOUT_ALMA               RTC_CR_OSEL_0           /*!< Alarm A output enabled */
 375:Drivers/STM32L0xx_HAL_Driver/Inc/stm32l0xx_ll_rtc.h **** #define LL_RTC_ALARMOUT_ALMB               RTC_CR_OSEL_1           /*!< Alarm B output enabled */
 376:Drivers/STM32L0xx_HAL_Driver/Inc/stm32l0xx_ll_rtc.h **** #define LL_RTC_ALARMOUT_WAKEUP             RTC_CR_OSEL             /*!< Wakeup output enabled */
 377:Drivers/STM32L0xx_HAL_Driver/Inc/stm32l0xx_ll_rtc.h **** /**
 378:Drivers/STM32L0xx_HAL_Driver/Inc/stm32l0xx_ll_rtc.h ****   * @}
 379:Drivers/STM32L0xx_HAL_Driver/Inc/stm32l0xx_ll_rtc.h ****   */
 380:Drivers/STM32L0xx_HAL_Driver/Inc/stm32l0xx_ll_rtc.h **** 
 381:Drivers/STM32L0xx_HAL_Driver/Inc/stm32l0xx_ll_rtc.h **** /** @defgroup RTC_LL_EC_ALARM_OUTPUTTYPE  ALARM OUTPUT TYPE
 382:Drivers/STM32L0xx_HAL_Driver/Inc/stm32l0xx_ll_rtc.h ****   * @{
 383:Drivers/STM32L0xx_HAL_Driver/Inc/stm32l0xx_ll_rtc.h ****   */
 384:Drivers/STM32L0xx_HAL_Driver/Inc/stm32l0xx_ll_rtc.h **** #define LL_RTC_ALARM_OUTPUTTYPE_OPENDRAIN  (uint32_t)0x00000000U  /*!< RTC_ALARM, when mapped on PC
 385:Drivers/STM32L0xx_HAL_Driver/Inc/stm32l0xx_ll_rtc.h **** #define LL_RTC_ALARM_OUTPUTTYPE_PUSHPULL   RTC_OR_ALARMOUTTYPE /*!< RTC_ALARM, when mapped on PC13,
 386:Drivers/STM32L0xx_HAL_Driver/Inc/stm32l0xx_ll_rtc.h **** /**
 387:Drivers/STM32L0xx_HAL_Driver/Inc/stm32l0xx_ll_rtc.h ****   * @}
 388:Drivers/STM32L0xx_HAL_Driver/Inc/stm32l0xx_ll_rtc.h ****   */
 389:Drivers/STM32L0xx_HAL_Driver/Inc/stm32l0xx_ll_rtc.h **** 
 390:Drivers/STM32L0xx_HAL_Driver/Inc/stm32l0xx_ll_rtc.h **** /** @defgroup RTC_LL_EC_OUTPUTPOLARITY_PIN  OUTPUT POLARITY PIN
 391:Drivers/STM32L0xx_HAL_Driver/Inc/stm32l0xx_ll_rtc.h ****   * @{
ARM GAS  /tmp/ccnIlCuV.s 			page 19


 392:Drivers/STM32L0xx_HAL_Driver/Inc/stm32l0xx_ll_rtc.h ****   */
 393:Drivers/STM32L0xx_HAL_Driver/Inc/stm32l0xx_ll_rtc.h **** #define LL_RTC_OUTPUTPOLARITY_PIN_HIGH     (uint32_t)0x00000000U /*!< Pin is high when ALRAF/ALRBF/
 394:Drivers/STM32L0xx_HAL_Driver/Inc/stm32l0xx_ll_rtc.h **** #define LL_RTC_OUTPUTPOLARITY_PIN_LOW      RTC_CR_POL            /*!< Pin is low when ALRAF/ALRBF/W
 395:Drivers/STM32L0xx_HAL_Driver/Inc/stm32l0xx_ll_rtc.h **** /**
 396:Drivers/STM32L0xx_HAL_Driver/Inc/stm32l0xx_ll_rtc.h ****   * @}
 397:Drivers/STM32L0xx_HAL_Driver/Inc/stm32l0xx_ll_rtc.h ****   */
 398:Drivers/STM32L0xx_HAL_Driver/Inc/stm32l0xx_ll_rtc.h **** 
 399:Drivers/STM32L0xx_HAL_Driver/Inc/stm32l0xx_ll_rtc.h **** /** @defgroup RTC_LL_EC_TIME_FORMAT TIME FORMAT
 400:Drivers/STM32L0xx_HAL_Driver/Inc/stm32l0xx_ll_rtc.h ****   * @{
 401:Drivers/STM32L0xx_HAL_Driver/Inc/stm32l0xx_ll_rtc.h ****   */
 402:Drivers/STM32L0xx_HAL_Driver/Inc/stm32l0xx_ll_rtc.h **** #define LL_RTC_TIME_FORMAT_AM_OR_24        (uint32_t)0x00000000U /*!< AM or 24-hour format */
 403:Drivers/STM32L0xx_HAL_Driver/Inc/stm32l0xx_ll_rtc.h **** #define LL_RTC_TIME_FORMAT_PM              RTC_TR_PM             /*!< PM */
 404:Drivers/STM32L0xx_HAL_Driver/Inc/stm32l0xx_ll_rtc.h **** /**
 405:Drivers/STM32L0xx_HAL_Driver/Inc/stm32l0xx_ll_rtc.h ****   * @}
 406:Drivers/STM32L0xx_HAL_Driver/Inc/stm32l0xx_ll_rtc.h ****   */
 407:Drivers/STM32L0xx_HAL_Driver/Inc/stm32l0xx_ll_rtc.h **** 
 408:Drivers/STM32L0xx_HAL_Driver/Inc/stm32l0xx_ll_rtc.h **** /** @defgroup RTC_LL_EC_SHIFT_SECOND  SHIFT SECOND
 409:Drivers/STM32L0xx_HAL_Driver/Inc/stm32l0xx_ll_rtc.h ****   * @{
 410:Drivers/STM32L0xx_HAL_Driver/Inc/stm32l0xx_ll_rtc.h ****   */
 411:Drivers/STM32L0xx_HAL_Driver/Inc/stm32l0xx_ll_rtc.h **** #define LL_RTC_SHIFT_SECOND_DELAY          (uint32_t)0x00000000U /* Delay (seconds) = SUBFS / (PRED
 412:Drivers/STM32L0xx_HAL_Driver/Inc/stm32l0xx_ll_rtc.h **** #define LL_RTC_SHIFT_SECOND_ADVANCE        RTC_SHIFTR_ADD1S      /* Advance (seconds) = (1 - (SUBFS
 413:Drivers/STM32L0xx_HAL_Driver/Inc/stm32l0xx_ll_rtc.h **** /**
 414:Drivers/STM32L0xx_HAL_Driver/Inc/stm32l0xx_ll_rtc.h ****   * @}
 415:Drivers/STM32L0xx_HAL_Driver/Inc/stm32l0xx_ll_rtc.h ****   */
 416:Drivers/STM32L0xx_HAL_Driver/Inc/stm32l0xx_ll_rtc.h **** 
 417:Drivers/STM32L0xx_HAL_Driver/Inc/stm32l0xx_ll_rtc.h **** /** @defgroup RTC_LL_EC_ALMA_MASK  ALARMA MASK
 418:Drivers/STM32L0xx_HAL_Driver/Inc/stm32l0xx_ll_rtc.h ****   * @{
 419:Drivers/STM32L0xx_HAL_Driver/Inc/stm32l0xx_ll_rtc.h ****   */
 420:Drivers/STM32L0xx_HAL_Driver/Inc/stm32l0xx_ll_rtc.h **** #define LL_RTC_ALMA_MASK_NONE              ((uint32_t)0x00000000U) /*!< No masks applied on Alarm A
 421:Drivers/STM32L0xx_HAL_Driver/Inc/stm32l0xx_ll_rtc.h **** #define LL_RTC_ALMA_MASK_DATEWEEKDAY       RTC_ALRMAR_MSK4         /*!< Date/day do not care in Ala
 422:Drivers/STM32L0xx_HAL_Driver/Inc/stm32l0xx_ll_rtc.h **** #define LL_RTC_ALMA_MASK_HOURS             RTC_ALRMAR_MSK3         /*!< Hours do not care in Alarm 
 423:Drivers/STM32L0xx_HAL_Driver/Inc/stm32l0xx_ll_rtc.h **** #define LL_RTC_ALMA_MASK_MINUTES           RTC_ALRMAR_MSK2         /*!< Minutes do not care in Alar
 424:Drivers/STM32L0xx_HAL_Driver/Inc/stm32l0xx_ll_rtc.h **** #define LL_RTC_ALMA_MASK_SECONDS           RTC_ALRMAR_MSK1         /*!< Seconds do not care in Alar
 425:Drivers/STM32L0xx_HAL_Driver/Inc/stm32l0xx_ll_rtc.h **** #define LL_RTC_ALMA_MASK_ALL               (RTC_ALRMAR_MSK4 | RTC_ALRMAR_MSK3 | RTC_ALRMAR_MSK2 | R
 426:Drivers/STM32L0xx_HAL_Driver/Inc/stm32l0xx_ll_rtc.h **** /**
 427:Drivers/STM32L0xx_HAL_Driver/Inc/stm32l0xx_ll_rtc.h ****   * @}
 428:Drivers/STM32L0xx_HAL_Driver/Inc/stm32l0xx_ll_rtc.h ****   */
 429:Drivers/STM32L0xx_HAL_Driver/Inc/stm32l0xx_ll_rtc.h **** 
 430:Drivers/STM32L0xx_HAL_Driver/Inc/stm32l0xx_ll_rtc.h **** /** @defgroup RTC_LL_EC_ALMA_TIME_FORMAT  ALARMA TIME FORMAT
 431:Drivers/STM32L0xx_HAL_Driver/Inc/stm32l0xx_ll_rtc.h ****   * @{
 432:Drivers/STM32L0xx_HAL_Driver/Inc/stm32l0xx_ll_rtc.h ****   */
 433:Drivers/STM32L0xx_HAL_Driver/Inc/stm32l0xx_ll_rtc.h **** #define LL_RTC_ALMA_TIME_FORMAT_AM         (uint32_t)0x00000000U /*!< AM or 24-hour format */
 434:Drivers/STM32L0xx_HAL_Driver/Inc/stm32l0xx_ll_rtc.h **** #define LL_RTC_ALMA_TIME_FORMAT_PM         RTC_ALRMAR_PM         /*!< PM */
 435:Drivers/STM32L0xx_HAL_Driver/Inc/stm32l0xx_ll_rtc.h **** /**
 436:Drivers/STM32L0xx_HAL_Driver/Inc/stm32l0xx_ll_rtc.h ****   * @}
 437:Drivers/STM32L0xx_HAL_Driver/Inc/stm32l0xx_ll_rtc.h ****   */
 438:Drivers/STM32L0xx_HAL_Driver/Inc/stm32l0xx_ll_rtc.h **** 
 439:Drivers/STM32L0xx_HAL_Driver/Inc/stm32l0xx_ll_rtc.h **** /** @defgroup RTC_LL_EC_ALMB_MASK  ALARMB MASK
 440:Drivers/STM32L0xx_HAL_Driver/Inc/stm32l0xx_ll_rtc.h ****   * @{
 441:Drivers/STM32L0xx_HAL_Driver/Inc/stm32l0xx_ll_rtc.h ****   */
 442:Drivers/STM32L0xx_HAL_Driver/Inc/stm32l0xx_ll_rtc.h **** #define LL_RTC_ALMB_MASK_NONE              ((uint32_t)0x00000000U) /*!< No masks applied on Alarm B
 443:Drivers/STM32L0xx_HAL_Driver/Inc/stm32l0xx_ll_rtc.h **** #define LL_RTC_ALMB_MASK_DATEWEEKDAY       RTC_ALRMBR_MSK4         /*!< Date/day do not care in Ala
 444:Drivers/STM32L0xx_HAL_Driver/Inc/stm32l0xx_ll_rtc.h **** #define LL_RTC_ALMB_MASK_HOURS             RTC_ALRMBR_MSK3         /*!< Hours do not care in Alarm 
 445:Drivers/STM32L0xx_HAL_Driver/Inc/stm32l0xx_ll_rtc.h **** #define LL_RTC_ALMB_MASK_MINUTES           RTC_ALRMBR_MSK2         /*!< Minutes do not care in Alar
 446:Drivers/STM32L0xx_HAL_Driver/Inc/stm32l0xx_ll_rtc.h **** #define LL_RTC_ALMB_MASK_SECONDS           RTC_ALRMBR_MSK1         /*!< Seconds do not care in Alar
 447:Drivers/STM32L0xx_HAL_Driver/Inc/stm32l0xx_ll_rtc.h **** #define LL_RTC_ALMB_MASK_ALL               (RTC_ALRMBR_MSK4 | RTC_ALRMBR_MSK3 | RTC_ALRMBR_MSK2 | R
 448:Drivers/STM32L0xx_HAL_Driver/Inc/stm32l0xx_ll_rtc.h **** /**
ARM GAS  /tmp/ccnIlCuV.s 			page 20


 449:Drivers/STM32L0xx_HAL_Driver/Inc/stm32l0xx_ll_rtc.h ****   * @}
 450:Drivers/STM32L0xx_HAL_Driver/Inc/stm32l0xx_ll_rtc.h ****   */
 451:Drivers/STM32L0xx_HAL_Driver/Inc/stm32l0xx_ll_rtc.h **** 
 452:Drivers/STM32L0xx_HAL_Driver/Inc/stm32l0xx_ll_rtc.h **** /** @defgroup RTC_LL_EC_ALMB_TIME_FORMAT  ALARMB TIME FORMAT
 453:Drivers/STM32L0xx_HAL_Driver/Inc/stm32l0xx_ll_rtc.h ****   * @{
 454:Drivers/STM32L0xx_HAL_Driver/Inc/stm32l0xx_ll_rtc.h ****   */
 455:Drivers/STM32L0xx_HAL_Driver/Inc/stm32l0xx_ll_rtc.h **** #define LL_RTC_ALMB_TIME_FORMAT_AM         (uint32_t)0x00000000U /*!< AM or 24-hour format */
 456:Drivers/STM32L0xx_HAL_Driver/Inc/stm32l0xx_ll_rtc.h **** #define LL_RTC_ALMB_TIME_FORMAT_PM         RTC_ALRMBR_PM         /*!< PM */
 457:Drivers/STM32L0xx_HAL_Driver/Inc/stm32l0xx_ll_rtc.h **** /**
 458:Drivers/STM32L0xx_HAL_Driver/Inc/stm32l0xx_ll_rtc.h ****   * @}
 459:Drivers/STM32L0xx_HAL_Driver/Inc/stm32l0xx_ll_rtc.h ****   */
 460:Drivers/STM32L0xx_HAL_Driver/Inc/stm32l0xx_ll_rtc.h **** 
 461:Drivers/STM32L0xx_HAL_Driver/Inc/stm32l0xx_ll_rtc.h **** /** @defgroup RTC_LL_EC_TIMESTAMP_EDGE  TIMESTAMP EDGE
 462:Drivers/STM32L0xx_HAL_Driver/Inc/stm32l0xx_ll_rtc.h ****   * @{
 463:Drivers/STM32L0xx_HAL_Driver/Inc/stm32l0xx_ll_rtc.h ****   */
 464:Drivers/STM32L0xx_HAL_Driver/Inc/stm32l0xx_ll_rtc.h **** #define LL_RTC_TIMESTAMP_EDGE_RISING       (uint32_t)0x00000000U /*!< RTC_TS input rising edge gene
 465:Drivers/STM32L0xx_HAL_Driver/Inc/stm32l0xx_ll_rtc.h **** #define LL_RTC_TIMESTAMP_EDGE_FALLING      RTC_CR_TSEDGE         /*!< RTC_TS input falling edge gen
 466:Drivers/STM32L0xx_HAL_Driver/Inc/stm32l0xx_ll_rtc.h **** /**
 467:Drivers/STM32L0xx_HAL_Driver/Inc/stm32l0xx_ll_rtc.h ****   * @}
 468:Drivers/STM32L0xx_HAL_Driver/Inc/stm32l0xx_ll_rtc.h ****   */
 469:Drivers/STM32L0xx_HAL_Driver/Inc/stm32l0xx_ll_rtc.h **** 
 470:Drivers/STM32L0xx_HAL_Driver/Inc/stm32l0xx_ll_rtc.h **** /** @defgroup RTC_LL_EC_TS_TIME_FORMAT  TIMESTAMP TIME FORMAT
 471:Drivers/STM32L0xx_HAL_Driver/Inc/stm32l0xx_ll_rtc.h ****   * @{
 472:Drivers/STM32L0xx_HAL_Driver/Inc/stm32l0xx_ll_rtc.h ****   */
 473:Drivers/STM32L0xx_HAL_Driver/Inc/stm32l0xx_ll_rtc.h **** #define LL_RTC_TS_TIME_FORMAT_AM           (uint32_t)0x00000000U /*!< AM or 24-hour format */
 474:Drivers/STM32L0xx_HAL_Driver/Inc/stm32l0xx_ll_rtc.h **** #define LL_RTC_TS_TIME_FORMAT_PM           RTC_TSTR_PM           /*!< PM */
 475:Drivers/STM32L0xx_HAL_Driver/Inc/stm32l0xx_ll_rtc.h **** /**
 476:Drivers/STM32L0xx_HAL_Driver/Inc/stm32l0xx_ll_rtc.h ****   * @}
 477:Drivers/STM32L0xx_HAL_Driver/Inc/stm32l0xx_ll_rtc.h ****   */
 478:Drivers/STM32L0xx_HAL_Driver/Inc/stm32l0xx_ll_rtc.h **** 
 479:Drivers/STM32L0xx_HAL_Driver/Inc/stm32l0xx_ll_rtc.h **** /** @defgroup RTC_LL_EC_TAMPER  TAMPER
 480:Drivers/STM32L0xx_HAL_Driver/Inc/stm32l0xx_ll_rtc.h ****   * @{
 481:Drivers/STM32L0xx_HAL_Driver/Inc/stm32l0xx_ll_rtc.h ****   */
 482:Drivers/STM32L0xx_HAL_Driver/Inc/stm32l0xx_ll_rtc.h **** #if defined(RTC_TAMPER1_SUPPORT)
 483:Drivers/STM32L0xx_HAL_Driver/Inc/stm32l0xx_ll_rtc.h **** #define LL_RTC_TAMPER_1                    RTC_TAMPCR_TAMP1E /*!< RTC_TAMP1 input detection */
 484:Drivers/STM32L0xx_HAL_Driver/Inc/stm32l0xx_ll_rtc.h **** #endif /* RTC_TAMPER1_SUPPORT */
 485:Drivers/STM32L0xx_HAL_Driver/Inc/stm32l0xx_ll_rtc.h **** #if defined(RTC_TAMPER2_SUPPORT)
 486:Drivers/STM32L0xx_HAL_Driver/Inc/stm32l0xx_ll_rtc.h **** #define LL_RTC_TAMPER_2                    RTC_TAMPCR_TAMP2E /*!< RTC_TAMP2 input detection */
 487:Drivers/STM32L0xx_HAL_Driver/Inc/stm32l0xx_ll_rtc.h **** #endif /* RTC_TAMPER2_SUPPORT */
 488:Drivers/STM32L0xx_HAL_Driver/Inc/stm32l0xx_ll_rtc.h **** #if defined(RTC_TAMPER3_SUPPORT)
 489:Drivers/STM32L0xx_HAL_Driver/Inc/stm32l0xx_ll_rtc.h **** #define LL_RTC_TAMPER_3                    RTC_TAMPCR_TAMP3E /*!< RTC_TAMP3 input detection */
 490:Drivers/STM32L0xx_HAL_Driver/Inc/stm32l0xx_ll_rtc.h **** #endif /* RTC_TAMPER3_SUPPORT */
 491:Drivers/STM32L0xx_HAL_Driver/Inc/stm32l0xx_ll_rtc.h **** /**
 492:Drivers/STM32L0xx_HAL_Driver/Inc/stm32l0xx_ll_rtc.h ****   * @}
 493:Drivers/STM32L0xx_HAL_Driver/Inc/stm32l0xx_ll_rtc.h ****   */
 494:Drivers/STM32L0xx_HAL_Driver/Inc/stm32l0xx_ll_rtc.h **** 
 495:Drivers/STM32L0xx_HAL_Driver/Inc/stm32l0xx_ll_rtc.h **** /** @defgroup RTC_LL_EC_TAMPER_MASK  TAMPER MASK
 496:Drivers/STM32L0xx_HAL_Driver/Inc/stm32l0xx_ll_rtc.h ****   * @{
 497:Drivers/STM32L0xx_HAL_Driver/Inc/stm32l0xx_ll_rtc.h ****   */
 498:Drivers/STM32L0xx_HAL_Driver/Inc/stm32l0xx_ll_rtc.h **** #if defined(RTC_TAMPER1_SUPPORT)
 499:Drivers/STM32L0xx_HAL_Driver/Inc/stm32l0xx_ll_rtc.h **** #define LL_RTC_TAMPER_MASK_TAMPER1         RTC_TAMPCR_TAMP1MF /*!< Tamper 1 event generates a trigg
 500:Drivers/STM32L0xx_HAL_Driver/Inc/stm32l0xx_ll_rtc.h **** #endif /* RTC_TAMPER1_SUPPORT */
 501:Drivers/STM32L0xx_HAL_Driver/Inc/stm32l0xx_ll_rtc.h **** #if defined(RTC_TAMPER2_SUPPORT)
 502:Drivers/STM32L0xx_HAL_Driver/Inc/stm32l0xx_ll_rtc.h **** #define LL_RTC_TAMPER_MASK_TAMPER2         RTC_TAMPCR_TAMP2MF /*!< Tamper 2 event generates a trigg
 503:Drivers/STM32L0xx_HAL_Driver/Inc/stm32l0xx_ll_rtc.h **** #endif /* RTC_TAMPER2_SUPPORT */
 504:Drivers/STM32L0xx_HAL_Driver/Inc/stm32l0xx_ll_rtc.h **** #if defined(RTC_TAMPER3_SUPPORT)
 505:Drivers/STM32L0xx_HAL_Driver/Inc/stm32l0xx_ll_rtc.h **** #define LL_RTC_TAMPER_MASK_TAMPER3         RTC_TAMPCR_TAMP3MF /*!< Tamper 3 event generates a trigg
ARM GAS  /tmp/ccnIlCuV.s 			page 21


 506:Drivers/STM32L0xx_HAL_Driver/Inc/stm32l0xx_ll_rtc.h **** #endif /* RTC_TAMPER3_SUPPORT */
 507:Drivers/STM32L0xx_HAL_Driver/Inc/stm32l0xx_ll_rtc.h **** /**
 508:Drivers/STM32L0xx_HAL_Driver/Inc/stm32l0xx_ll_rtc.h ****   * @}
 509:Drivers/STM32L0xx_HAL_Driver/Inc/stm32l0xx_ll_rtc.h ****   */
 510:Drivers/STM32L0xx_HAL_Driver/Inc/stm32l0xx_ll_rtc.h **** 
 511:Drivers/STM32L0xx_HAL_Driver/Inc/stm32l0xx_ll_rtc.h **** /** @defgroup RTC_LL_EC_TAMPER_NOERASE  TAMPER NO ERASE
 512:Drivers/STM32L0xx_HAL_Driver/Inc/stm32l0xx_ll_rtc.h ****   * @{
 513:Drivers/STM32L0xx_HAL_Driver/Inc/stm32l0xx_ll_rtc.h ****   */
 514:Drivers/STM32L0xx_HAL_Driver/Inc/stm32l0xx_ll_rtc.h **** #if defined(RTC_TAMPER1_SUPPORT)
 515:Drivers/STM32L0xx_HAL_Driver/Inc/stm32l0xx_ll_rtc.h **** #define LL_RTC_TAMPER_NOERASE_TAMPER1      RTC_TAMPCR_TAMP1NOERASE /*!< Tamper 1 event does not era
 516:Drivers/STM32L0xx_HAL_Driver/Inc/stm32l0xx_ll_rtc.h **** #endif /* RTC_TAMPER1_SUPPORT */
 517:Drivers/STM32L0xx_HAL_Driver/Inc/stm32l0xx_ll_rtc.h **** #if defined(RTC_TAMPER2_SUPPORT)
 518:Drivers/STM32L0xx_HAL_Driver/Inc/stm32l0xx_ll_rtc.h **** #define LL_RTC_TAMPER_NOERASE_TAMPER2      RTC_TAMPCR_TAMP2NOERASE /*!< Tamper 2 event does not era
 519:Drivers/STM32L0xx_HAL_Driver/Inc/stm32l0xx_ll_rtc.h **** #endif /* RTC_TAMPER2_SUPPORT */
 520:Drivers/STM32L0xx_HAL_Driver/Inc/stm32l0xx_ll_rtc.h **** #if defined(RTC_TAMPER3_SUPPORT)
 521:Drivers/STM32L0xx_HAL_Driver/Inc/stm32l0xx_ll_rtc.h **** #define LL_RTC_TAMPER_NOERASE_TAMPER3      RTC_TAMPCR_TAMP3NOERASE /*!< Tamper 3 event does not era
 522:Drivers/STM32L0xx_HAL_Driver/Inc/stm32l0xx_ll_rtc.h **** #endif /* RTC_TAMPER3_SUPPORT */
 523:Drivers/STM32L0xx_HAL_Driver/Inc/stm32l0xx_ll_rtc.h **** /**
 524:Drivers/STM32L0xx_HAL_Driver/Inc/stm32l0xx_ll_rtc.h ****   * @}
 525:Drivers/STM32L0xx_HAL_Driver/Inc/stm32l0xx_ll_rtc.h ****   */
 526:Drivers/STM32L0xx_HAL_Driver/Inc/stm32l0xx_ll_rtc.h **** 
 527:Drivers/STM32L0xx_HAL_Driver/Inc/stm32l0xx_ll_rtc.h **** #if defined(RTC_TAMPCR_TAMPPRCH)
 528:Drivers/STM32L0xx_HAL_Driver/Inc/stm32l0xx_ll_rtc.h **** /** @defgroup RTC_LL_EC_TAMPER_DURATION  TAMPER DURATION
 529:Drivers/STM32L0xx_HAL_Driver/Inc/stm32l0xx_ll_rtc.h ****   * @{
 530:Drivers/STM32L0xx_HAL_Driver/Inc/stm32l0xx_ll_rtc.h ****   */
 531:Drivers/STM32L0xx_HAL_Driver/Inc/stm32l0xx_ll_rtc.h **** #define LL_RTC_TAMPER_DURATION_1RTCCLK     ((uint32_t)0x00000000U) /*!< Tamper pins are pre-charged
 532:Drivers/STM32L0xx_HAL_Driver/Inc/stm32l0xx_ll_rtc.h **** #define LL_RTC_TAMPER_DURATION_2RTCCLK     RTC_TAMPCR_TAMPPRCH_0  /*!< Tamper pins are pre-charged 
 533:Drivers/STM32L0xx_HAL_Driver/Inc/stm32l0xx_ll_rtc.h **** #define LL_RTC_TAMPER_DURATION_4RTCCLK     RTC_TAMPCR_TAMPPRCH_1  /*!< Tamper pins are pre-charged 
 534:Drivers/STM32L0xx_HAL_Driver/Inc/stm32l0xx_ll_rtc.h **** #define LL_RTC_TAMPER_DURATION_8RTCCLK     RTC_TAMPCR_TAMPPRCH    /*!< Tamper pins are pre-charged 
 535:Drivers/STM32L0xx_HAL_Driver/Inc/stm32l0xx_ll_rtc.h **** /**
 536:Drivers/STM32L0xx_HAL_Driver/Inc/stm32l0xx_ll_rtc.h ****   * @}
 537:Drivers/STM32L0xx_HAL_Driver/Inc/stm32l0xx_ll_rtc.h ****   */
 538:Drivers/STM32L0xx_HAL_Driver/Inc/stm32l0xx_ll_rtc.h **** #endif /* RTC_TAMPCR_TAMPPRCH */
 539:Drivers/STM32L0xx_HAL_Driver/Inc/stm32l0xx_ll_rtc.h **** 
 540:Drivers/STM32L0xx_HAL_Driver/Inc/stm32l0xx_ll_rtc.h **** #if defined(RTC_TAMPCR_TAMPFLT)
 541:Drivers/STM32L0xx_HAL_Driver/Inc/stm32l0xx_ll_rtc.h **** /** @defgroup RTC_LL_EC_TAMPER_FILTER  TAMPER FILTER
 542:Drivers/STM32L0xx_HAL_Driver/Inc/stm32l0xx_ll_rtc.h ****   * @{
 543:Drivers/STM32L0xx_HAL_Driver/Inc/stm32l0xx_ll_rtc.h ****   */
 544:Drivers/STM32L0xx_HAL_Driver/Inc/stm32l0xx_ll_rtc.h **** #define LL_RTC_TAMPER_FILTER_DISABLE       ((uint32_t)0x00000000U)  /*!< Tamper filter is disabled 
 545:Drivers/STM32L0xx_HAL_Driver/Inc/stm32l0xx_ll_rtc.h **** #define LL_RTC_TAMPER_FILTER_2SAMPLE       RTC_TAMPCR_TAMPFLT_0    /*!< Tamper is activated after 2
 546:Drivers/STM32L0xx_HAL_Driver/Inc/stm32l0xx_ll_rtc.h **** #define LL_RTC_TAMPER_FILTER_4SAMPLE       RTC_TAMPCR_TAMPFLT_1    /*!< Tamper is activated after 4
 547:Drivers/STM32L0xx_HAL_Driver/Inc/stm32l0xx_ll_rtc.h **** #define LL_RTC_TAMPER_FILTER_8SAMPLE       RTC_TAMPCR_TAMPFLT      /*!< Tamper is activated after 8
 548:Drivers/STM32L0xx_HAL_Driver/Inc/stm32l0xx_ll_rtc.h **** /**
 549:Drivers/STM32L0xx_HAL_Driver/Inc/stm32l0xx_ll_rtc.h ****   * @}
 550:Drivers/STM32L0xx_HAL_Driver/Inc/stm32l0xx_ll_rtc.h ****   */
 551:Drivers/STM32L0xx_HAL_Driver/Inc/stm32l0xx_ll_rtc.h **** #endif /* RTC_TAMPCR_TAMPFLT */
 552:Drivers/STM32L0xx_HAL_Driver/Inc/stm32l0xx_ll_rtc.h **** 
 553:Drivers/STM32L0xx_HAL_Driver/Inc/stm32l0xx_ll_rtc.h **** #if defined(RTC_TAMPCR_TAMPFREQ)
 554:Drivers/STM32L0xx_HAL_Driver/Inc/stm32l0xx_ll_rtc.h **** /** @defgroup RTC_LL_EC_TAMPER_SAMPLFREQDIV  TAMPER SAMPLING FREQUENCY DIVIDER
 555:Drivers/STM32L0xx_HAL_Driver/Inc/stm32l0xx_ll_rtc.h ****   * @{
 556:Drivers/STM32L0xx_HAL_Driver/Inc/stm32l0xx_ll_rtc.h ****   */
 557:Drivers/STM32L0xx_HAL_Driver/Inc/stm32l0xx_ll_rtc.h **** #define LL_RTC_TAMPER_SAMPLFREQDIV_32768   ((uint32_t)0x00000000U)                          /*!< Ea
 558:Drivers/STM32L0xx_HAL_Driver/Inc/stm32l0xx_ll_rtc.h **** #define LL_RTC_TAMPER_SAMPLFREQDIV_16384   RTC_TAMPCR_TAMPFREQ_0                           /*!< Eac
 559:Drivers/STM32L0xx_HAL_Driver/Inc/stm32l0xx_ll_rtc.h **** #define LL_RTC_TAMPER_SAMPLFREQDIV_8192    RTC_TAMPCR_TAMPFREQ_1                           /*!< Eac
 560:Drivers/STM32L0xx_HAL_Driver/Inc/stm32l0xx_ll_rtc.h **** #define LL_RTC_TAMPER_SAMPLFREQDIV_4096    (RTC_TAMPCR_TAMPFREQ_1 | RTC_TAMPCR_TAMPFREQ_0) /*!< Eac
 561:Drivers/STM32L0xx_HAL_Driver/Inc/stm32l0xx_ll_rtc.h **** #define LL_RTC_TAMPER_SAMPLFREQDIV_2048    RTC_TAMPCR_TAMPFREQ_2                           /*!< Eac
 562:Drivers/STM32L0xx_HAL_Driver/Inc/stm32l0xx_ll_rtc.h **** #define LL_RTC_TAMPER_SAMPLFREQDIV_1024    (RTC_TAMPCR_TAMPFREQ_2 | RTC_TAMPCR_TAMPFREQ_0) /*!< Eac
ARM GAS  /tmp/ccnIlCuV.s 			page 22


 563:Drivers/STM32L0xx_HAL_Driver/Inc/stm32l0xx_ll_rtc.h **** #define LL_RTC_TAMPER_SAMPLFREQDIV_512     (RTC_TAMPCR_TAMPFREQ_2 | RTC_TAMPCR_TAMPFREQ_1) /*!< Eac
 564:Drivers/STM32L0xx_HAL_Driver/Inc/stm32l0xx_ll_rtc.h **** #define LL_RTC_TAMPER_SAMPLFREQDIV_256     RTC_TAMPCR_TAMPFREQ                             /*!< Eac
 565:Drivers/STM32L0xx_HAL_Driver/Inc/stm32l0xx_ll_rtc.h **** /**
 566:Drivers/STM32L0xx_HAL_Driver/Inc/stm32l0xx_ll_rtc.h ****   * @}
 567:Drivers/STM32L0xx_HAL_Driver/Inc/stm32l0xx_ll_rtc.h ****   */
 568:Drivers/STM32L0xx_HAL_Driver/Inc/stm32l0xx_ll_rtc.h **** #endif /* RTC_TAMPCR_TAMPFREQ */
 569:Drivers/STM32L0xx_HAL_Driver/Inc/stm32l0xx_ll_rtc.h **** 
 570:Drivers/STM32L0xx_HAL_Driver/Inc/stm32l0xx_ll_rtc.h **** /** @defgroup RTC_LL_EC_TAMPER_ACTIVELEVEL  TAMPER ACTIVE LEVEL
 571:Drivers/STM32L0xx_HAL_Driver/Inc/stm32l0xx_ll_rtc.h ****   * @{
 572:Drivers/STM32L0xx_HAL_Driver/Inc/stm32l0xx_ll_rtc.h ****   */
 573:Drivers/STM32L0xx_HAL_Driver/Inc/stm32l0xx_ll_rtc.h **** #if defined(RTC_TAMPER1_SUPPORT)
 574:Drivers/STM32L0xx_HAL_Driver/Inc/stm32l0xx_ll_rtc.h **** #define LL_RTC_TAMPER_ACTIVELEVEL_TAMP1    RTC_TAMPCR_TAMP1TRG /*!< RTC_TAMP1 input falling edge (i
 575:Drivers/STM32L0xx_HAL_Driver/Inc/stm32l0xx_ll_rtc.h **** #endif /* RTC_TAMPER1_SUPPORT */
 576:Drivers/STM32L0xx_HAL_Driver/Inc/stm32l0xx_ll_rtc.h **** #if defined(RTC_TAMPER2_SUPPORT)
 577:Drivers/STM32L0xx_HAL_Driver/Inc/stm32l0xx_ll_rtc.h **** #define LL_RTC_TAMPER_ACTIVELEVEL_TAMP2    RTC_TAMPCR_TAMP2TRG /*!< RTC_TAMP2 input falling edge (i
 578:Drivers/STM32L0xx_HAL_Driver/Inc/stm32l0xx_ll_rtc.h **** #endif /* RTC_TAMPER2_SUPPORT */
 579:Drivers/STM32L0xx_HAL_Driver/Inc/stm32l0xx_ll_rtc.h **** #if defined(RTC_TAMPER3_SUPPORT)
 580:Drivers/STM32L0xx_HAL_Driver/Inc/stm32l0xx_ll_rtc.h **** #define LL_RTC_TAMPER_ACTIVELEVEL_TAMP3    RTC_TAMPCR_TAMP3TRG /*!< RTC_TAMP3 input falling edge (i
 581:Drivers/STM32L0xx_HAL_Driver/Inc/stm32l0xx_ll_rtc.h **** #endif /* RTC_TAMPER3_SUPPORT */
 582:Drivers/STM32L0xx_HAL_Driver/Inc/stm32l0xx_ll_rtc.h **** /**
 583:Drivers/STM32L0xx_HAL_Driver/Inc/stm32l0xx_ll_rtc.h ****   * @}
 584:Drivers/STM32L0xx_HAL_Driver/Inc/stm32l0xx_ll_rtc.h ****   */
 585:Drivers/STM32L0xx_HAL_Driver/Inc/stm32l0xx_ll_rtc.h **** 
 586:Drivers/STM32L0xx_HAL_Driver/Inc/stm32l0xx_ll_rtc.h **** /** @defgroup RTC_LL_EC_WAKEUPCLOCK_DIV  WAKEUP CLOCK DIV
 587:Drivers/STM32L0xx_HAL_Driver/Inc/stm32l0xx_ll_rtc.h ****   * @{
 588:Drivers/STM32L0xx_HAL_Driver/Inc/stm32l0xx_ll_rtc.h ****   */
 589:Drivers/STM32L0xx_HAL_Driver/Inc/stm32l0xx_ll_rtc.h **** #define LL_RTC_WAKEUPCLOCK_DIV_16          ((uint32_t)0x00000000U)               /*!< RTC/16 clock 
 590:Drivers/STM32L0xx_HAL_Driver/Inc/stm32l0xx_ll_rtc.h **** #define LL_RTC_WAKEUPCLOCK_DIV_8           (RTC_CR_WUCKSEL_0)                    /*!< RTC/8 clock i
 591:Drivers/STM32L0xx_HAL_Driver/Inc/stm32l0xx_ll_rtc.h **** #define LL_RTC_WAKEUPCLOCK_DIV_4           (RTC_CR_WUCKSEL_1)                    /*!< RTC/4 clock i
 592:Drivers/STM32L0xx_HAL_Driver/Inc/stm32l0xx_ll_rtc.h **** #define LL_RTC_WAKEUPCLOCK_DIV_2           (RTC_CR_WUCKSEL_1 | RTC_CR_WUCKSEL_0) /*!< RTC/2 clock i
 593:Drivers/STM32L0xx_HAL_Driver/Inc/stm32l0xx_ll_rtc.h **** #define LL_RTC_WAKEUPCLOCK_CKSPRE          (RTC_CR_WUCKSEL_2)                    /*!< ck_spre (usua
 594:Drivers/STM32L0xx_HAL_Driver/Inc/stm32l0xx_ll_rtc.h **** #define LL_RTC_WAKEUPCLOCK_CKSPRE_WUT      (RTC_CR_WUCKSEL_2 | RTC_CR_WUCKSEL_1) /*!< ck_spre (usua
 595:Drivers/STM32L0xx_HAL_Driver/Inc/stm32l0xx_ll_rtc.h **** /**
 596:Drivers/STM32L0xx_HAL_Driver/Inc/stm32l0xx_ll_rtc.h ****   * @}
 597:Drivers/STM32L0xx_HAL_Driver/Inc/stm32l0xx_ll_rtc.h ****   */
 598:Drivers/STM32L0xx_HAL_Driver/Inc/stm32l0xx_ll_rtc.h **** 
 599:Drivers/STM32L0xx_HAL_Driver/Inc/stm32l0xx_ll_rtc.h **** #if defined(RTC_BACKUP_SUPPORT)
 600:Drivers/STM32L0xx_HAL_Driver/Inc/stm32l0xx_ll_rtc.h **** /** @defgroup RTC_LL_EC_BKP  BACKUP
 601:Drivers/STM32L0xx_HAL_Driver/Inc/stm32l0xx_ll_rtc.h ****   * @{
 602:Drivers/STM32L0xx_HAL_Driver/Inc/stm32l0xx_ll_rtc.h ****   */
 603:Drivers/STM32L0xx_HAL_Driver/Inc/stm32l0xx_ll_rtc.h **** #define LL_RTC_BKP_DR0                     ((uint32_t)0x00000000U)
 604:Drivers/STM32L0xx_HAL_Driver/Inc/stm32l0xx_ll_rtc.h **** #define LL_RTC_BKP_DR1                     ((uint32_t)0x00000001U)
 605:Drivers/STM32L0xx_HAL_Driver/Inc/stm32l0xx_ll_rtc.h **** #define LL_RTC_BKP_DR2                     ((uint32_t)0x00000002U)
 606:Drivers/STM32L0xx_HAL_Driver/Inc/stm32l0xx_ll_rtc.h **** #define LL_RTC_BKP_DR3                     ((uint32_t)0x00000003U)
 607:Drivers/STM32L0xx_HAL_Driver/Inc/stm32l0xx_ll_rtc.h **** #define LL_RTC_BKP_DR4                     ((uint32_t)0x00000004U)
 608:Drivers/STM32L0xx_HAL_Driver/Inc/stm32l0xx_ll_rtc.h **** /**
 609:Drivers/STM32L0xx_HAL_Driver/Inc/stm32l0xx_ll_rtc.h ****   * @}
 610:Drivers/STM32L0xx_HAL_Driver/Inc/stm32l0xx_ll_rtc.h ****   */
 611:Drivers/STM32L0xx_HAL_Driver/Inc/stm32l0xx_ll_rtc.h **** #endif /* RTC_BACKUP_SUPPORT */
 612:Drivers/STM32L0xx_HAL_Driver/Inc/stm32l0xx_ll_rtc.h **** 
 613:Drivers/STM32L0xx_HAL_Driver/Inc/stm32l0xx_ll_rtc.h **** /** @defgroup RTC_LL_EC_CALIB_OUTPUT  Calibration output
 614:Drivers/STM32L0xx_HAL_Driver/Inc/stm32l0xx_ll_rtc.h ****   * @{
 615:Drivers/STM32L0xx_HAL_Driver/Inc/stm32l0xx_ll_rtc.h ****   */
 616:Drivers/STM32L0xx_HAL_Driver/Inc/stm32l0xx_ll_rtc.h **** #define LL_RTC_CALIB_OUTPUT_NONE           (uint32_t)0x00000000U       /*!< Calibration output disa
 617:Drivers/STM32L0xx_HAL_Driver/Inc/stm32l0xx_ll_rtc.h **** #define LL_RTC_CALIB_OUTPUT_1HZ            (RTC_CR_COE | RTC_CR_COSEL) /*!< Calibration output is 5
 618:Drivers/STM32L0xx_HAL_Driver/Inc/stm32l0xx_ll_rtc.h **** #define LL_RTC_CALIB_OUTPUT_512HZ          (RTC_CR_COE)                /*!< Calibration output is 1
 619:Drivers/STM32L0xx_HAL_Driver/Inc/stm32l0xx_ll_rtc.h **** /**
ARM GAS  /tmp/ccnIlCuV.s 			page 23


 620:Drivers/STM32L0xx_HAL_Driver/Inc/stm32l0xx_ll_rtc.h ****   * @}
 621:Drivers/STM32L0xx_HAL_Driver/Inc/stm32l0xx_ll_rtc.h ****   */
 622:Drivers/STM32L0xx_HAL_Driver/Inc/stm32l0xx_ll_rtc.h **** 
 623:Drivers/STM32L0xx_HAL_Driver/Inc/stm32l0xx_ll_rtc.h **** /** @defgroup RTC_LL_EC_CALIB_INSERTPULSE  Calibration pulse insertion 
 624:Drivers/STM32L0xx_HAL_Driver/Inc/stm32l0xx_ll_rtc.h ****   * @{
 625:Drivers/STM32L0xx_HAL_Driver/Inc/stm32l0xx_ll_rtc.h ****   */
 626:Drivers/STM32L0xx_HAL_Driver/Inc/stm32l0xx_ll_rtc.h **** #define LL_RTC_CALIB_INSERTPULSE_NONE      (uint32_t)0x00000000U /*!< No RTCCLK pulses are added */
 627:Drivers/STM32L0xx_HAL_Driver/Inc/stm32l0xx_ll_rtc.h **** #define LL_RTC_CALIB_INSERTPULSE_SET       RTC_CALR_CALP         /*!< One RTCCLK pulse is effective
 628:Drivers/STM32L0xx_HAL_Driver/Inc/stm32l0xx_ll_rtc.h **** /**
 629:Drivers/STM32L0xx_HAL_Driver/Inc/stm32l0xx_ll_rtc.h ****   * @}
 630:Drivers/STM32L0xx_HAL_Driver/Inc/stm32l0xx_ll_rtc.h ****   */
 631:Drivers/STM32L0xx_HAL_Driver/Inc/stm32l0xx_ll_rtc.h **** 
 632:Drivers/STM32L0xx_HAL_Driver/Inc/stm32l0xx_ll_rtc.h **** /** @defgroup RTC_LL_EC_CALIB_PERIOD  Calibration period
 633:Drivers/STM32L0xx_HAL_Driver/Inc/stm32l0xx_ll_rtc.h ****   * @{
 634:Drivers/STM32L0xx_HAL_Driver/Inc/stm32l0xx_ll_rtc.h ****   */
 635:Drivers/STM32L0xx_HAL_Driver/Inc/stm32l0xx_ll_rtc.h **** #define LL_RTC_CALIB_PERIOD_32SEC          (uint32_t)0x00000000U /*!< Use a 32-second calibration c
 636:Drivers/STM32L0xx_HAL_Driver/Inc/stm32l0xx_ll_rtc.h **** #define LL_RTC_CALIB_PERIOD_16SEC          RTC_CALR_CALW16       /*!< Use a 16-second calibration c
 637:Drivers/STM32L0xx_HAL_Driver/Inc/stm32l0xx_ll_rtc.h **** #define LL_RTC_CALIB_PERIOD_8SEC           RTC_CALR_CALW8        /*!< Use a 8-second calibration cy
 638:Drivers/STM32L0xx_HAL_Driver/Inc/stm32l0xx_ll_rtc.h **** /**
 639:Drivers/STM32L0xx_HAL_Driver/Inc/stm32l0xx_ll_rtc.h ****   * @}
 640:Drivers/STM32L0xx_HAL_Driver/Inc/stm32l0xx_ll_rtc.h ****   */
 641:Drivers/STM32L0xx_HAL_Driver/Inc/stm32l0xx_ll_rtc.h **** 
 642:Drivers/STM32L0xx_HAL_Driver/Inc/stm32l0xx_ll_rtc.h **** /**
 643:Drivers/STM32L0xx_HAL_Driver/Inc/stm32l0xx_ll_rtc.h ****   * @}
 644:Drivers/STM32L0xx_HAL_Driver/Inc/stm32l0xx_ll_rtc.h ****   */
 645:Drivers/STM32L0xx_HAL_Driver/Inc/stm32l0xx_ll_rtc.h **** 
 646:Drivers/STM32L0xx_HAL_Driver/Inc/stm32l0xx_ll_rtc.h **** /* Exported macro ------------------------------------------------------------*/
 647:Drivers/STM32L0xx_HAL_Driver/Inc/stm32l0xx_ll_rtc.h **** /** @defgroup RTC_LL_Exported_Macros RTC Exported Macros
 648:Drivers/STM32L0xx_HAL_Driver/Inc/stm32l0xx_ll_rtc.h ****   * @{
 649:Drivers/STM32L0xx_HAL_Driver/Inc/stm32l0xx_ll_rtc.h ****   */
 650:Drivers/STM32L0xx_HAL_Driver/Inc/stm32l0xx_ll_rtc.h **** 
 651:Drivers/STM32L0xx_HAL_Driver/Inc/stm32l0xx_ll_rtc.h **** /** @defgroup RTC_LL_EM_WRITE_READ Common Write and read registers Macros
 652:Drivers/STM32L0xx_HAL_Driver/Inc/stm32l0xx_ll_rtc.h ****   * @{
 653:Drivers/STM32L0xx_HAL_Driver/Inc/stm32l0xx_ll_rtc.h ****   */
 654:Drivers/STM32L0xx_HAL_Driver/Inc/stm32l0xx_ll_rtc.h **** 
 655:Drivers/STM32L0xx_HAL_Driver/Inc/stm32l0xx_ll_rtc.h **** /**
 656:Drivers/STM32L0xx_HAL_Driver/Inc/stm32l0xx_ll_rtc.h ****   * @brief  Write a value in RTC register
 657:Drivers/STM32L0xx_HAL_Driver/Inc/stm32l0xx_ll_rtc.h ****   * @param  __INSTANCE__ RTC Instance
 658:Drivers/STM32L0xx_HAL_Driver/Inc/stm32l0xx_ll_rtc.h ****   * @param  __REG__ Register to be written
 659:Drivers/STM32L0xx_HAL_Driver/Inc/stm32l0xx_ll_rtc.h ****   * @param  __VALUE__ Value to be written in the register
 660:Drivers/STM32L0xx_HAL_Driver/Inc/stm32l0xx_ll_rtc.h ****   * @retval None
 661:Drivers/STM32L0xx_HAL_Driver/Inc/stm32l0xx_ll_rtc.h ****   */
 662:Drivers/STM32L0xx_HAL_Driver/Inc/stm32l0xx_ll_rtc.h **** #define LL_RTC_WriteReg(__INSTANCE__, __REG__, __VALUE__) WRITE_REG(__INSTANCE__->__REG__, (__VALUE
 663:Drivers/STM32L0xx_HAL_Driver/Inc/stm32l0xx_ll_rtc.h **** 
 664:Drivers/STM32L0xx_HAL_Driver/Inc/stm32l0xx_ll_rtc.h **** /**
 665:Drivers/STM32L0xx_HAL_Driver/Inc/stm32l0xx_ll_rtc.h ****   * @brief  Read a value in RTC register
 666:Drivers/STM32L0xx_HAL_Driver/Inc/stm32l0xx_ll_rtc.h ****   * @param  __INSTANCE__ RTC Instance
 667:Drivers/STM32L0xx_HAL_Driver/Inc/stm32l0xx_ll_rtc.h ****   * @param  __REG__ Register to be read
 668:Drivers/STM32L0xx_HAL_Driver/Inc/stm32l0xx_ll_rtc.h ****   * @retval Register value
 669:Drivers/STM32L0xx_HAL_Driver/Inc/stm32l0xx_ll_rtc.h ****   */
 670:Drivers/STM32L0xx_HAL_Driver/Inc/stm32l0xx_ll_rtc.h **** #define LL_RTC_ReadReg(__INSTANCE__, __REG__) READ_REG(__INSTANCE__->__REG__)
 671:Drivers/STM32L0xx_HAL_Driver/Inc/stm32l0xx_ll_rtc.h **** /**
 672:Drivers/STM32L0xx_HAL_Driver/Inc/stm32l0xx_ll_rtc.h ****   * @}
 673:Drivers/STM32L0xx_HAL_Driver/Inc/stm32l0xx_ll_rtc.h ****   */
 674:Drivers/STM32L0xx_HAL_Driver/Inc/stm32l0xx_ll_rtc.h **** 
 675:Drivers/STM32L0xx_HAL_Driver/Inc/stm32l0xx_ll_rtc.h **** /** @defgroup RTC_LL_EM_Convert Convert helper Macros
 676:Drivers/STM32L0xx_HAL_Driver/Inc/stm32l0xx_ll_rtc.h ****   * @{
ARM GAS  /tmp/ccnIlCuV.s 			page 24


 677:Drivers/STM32L0xx_HAL_Driver/Inc/stm32l0xx_ll_rtc.h ****   */
 678:Drivers/STM32L0xx_HAL_Driver/Inc/stm32l0xx_ll_rtc.h **** 
 679:Drivers/STM32L0xx_HAL_Driver/Inc/stm32l0xx_ll_rtc.h **** /**
 680:Drivers/STM32L0xx_HAL_Driver/Inc/stm32l0xx_ll_rtc.h ****   * @brief  Helper macro to convert a value from 2 digit decimal format to BCD format
 681:Drivers/STM32L0xx_HAL_Driver/Inc/stm32l0xx_ll_rtc.h ****   * @param  __VALUE__ Byte to be converted
 682:Drivers/STM32L0xx_HAL_Driver/Inc/stm32l0xx_ll_rtc.h ****   * @retval Converted byte
 683:Drivers/STM32L0xx_HAL_Driver/Inc/stm32l0xx_ll_rtc.h ****   */
 684:Drivers/STM32L0xx_HAL_Driver/Inc/stm32l0xx_ll_rtc.h **** #define __LL_RTC_CONVERT_BIN2BCD(__VALUE__) (uint8_t)((((__VALUE__) / 10U) << 4U) | ((__VALUE__) % 
 685:Drivers/STM32L0xx_HAL_Driver/Inc/stm32l0xx_ll_rtc.h **** 
 686:Drivers/STM32L0xx_HAL_Driver/Inc/stm32l0xx_ll_rtc.h **** /**
 687:Drivers/STM32L0xx_HAL_Driver/Inc/stm32l0xx_ll_rtc.h ****   * @brief  Helper macro to convert a value from BCD format to 2 digit decimal format
 688:Drivers/STM32L0xx_HAL_Driver/Inc/stm32l0xx_ll_rtc.h ****   * @param  __VALUE__ BCD value to be converted
 689:Drivers/STM32L0xx_HAL_Driver/Inc/stm32l0xx_ll_rtc.h ****   * @retval Converted byte
 690:Drivers/STM32L0xx_HAL_Driver/Inc/stm32l0xx_ll_rtc.h ****   */
 691:Drivers/STM32L0xx_HAL_Driver/Inc/stm32l0xx_ll_rtc.h **** #define __LL_RTC_CONVERT_BCD2BIN(__VALUE__) (uint8_t)(((uint8_t)((__VALUE__) & (uint8_t)0xF0U) >> (
 692:Drivers/STM32L0xx_HAL_Driver/Inc/stm32l0xx_ll_rtc.h **** 
 693:Drivers/STM32L0xx_HAL_Driver/Inc/stm32l0xx_ll_rtc.h **** /**
 694:Drivers/STM32L0xx_HAL_Driver/Inc/stm32l0xx_ll_rtc.h ****   * @}
 695:Drivers/STM32L0xx_HAL_Driver/Inc/stm32l0xx_ll_rtc.h ****   */
 696:Drivers/STM32L0xx_HAL_Driver/Inc/stm32l0xx_ll_rtc.h **** 
 697:Drivers/STM32L0xx_HAL_Driver/Inc/stm32l0xx_ll_rtc.h **** /** @defgroup RTC_LL_EM_Date Date helper Macros
 698:Drivers/STM32L0xx_HAL_Driver/Inc/stm32l0xx_ll_rtc.h ****   * @{
 699:Drivers/STM32L0xx_HAL_Driver/Inc/stm32l0xx_ll_rtc.h ****   */
 700:Drivers/STM32L0xx_HAL_Driver/Inc/stm32l0xx_ll_rtc.h **** 
 701:Drivers/STM32L0xx_HAL_Driver/Inc/stm32l0xx_ll_rtc.h **** /**
 702:Drivers/STM32L0xx_HAL_Driver/Inc/stm32l0xx_ll_rtc.h ****   * @brief  Helper macro to retrieve weekday.
 703:Drivers/STM32L0xx_HAL_Driver/Inc/stm32l0xx_ll_rtc.h ****   * @param  __RTC_DATE__ Date returned by @ref  LL_RTC_DATE_Get function.
 704:Drivers/STM32L0xx_HAL_Driver/Inc/stm32l0xx_ll_rtc.h ****   * @retval Returned value can be one of the following values:
 705:Drivers/STM32L0xx_HAL_Driver/Inc/stm32l0xx_ll_rtc.h ****   *         @arg @ref LL_RTC_WEEKDAY_MONDAY
 706:Drivers/STM32L0xx_HAL_Driver/Inc/stm32l0xx_ll_rtc.h ****   *         @arg @ref LL_RTC_WEEKDAY_TUESDAY
 707:Drivers/STM32L0xx_HAL_Driver/Inc/stm32l0xx_ll_rtc.h ****   *         @arg @ref LL_RTC_WEEKDAY_WEDNESDAY
 708:Drivers/STM32L0xx_HAL_Driver/Inc/stm32l0xx_ll_rtc.h ****   *         @arg @ref LL_RTC_WEEKDAY_THURSDAY
 709:Drivers/STM32L0xx_HAL_Driver/Inc/stm32l0xx_ll_rtc.h ****   *         @arg @ref LL_RTC_WEEKDAY_FRIDAY
 710:Drivers/STM32L0xx_HAL_Driver/Inc/stm32l0xx_ll_rtc.h ****   *         @arg @ref LL_RTC_WEEKDAY_SATURDAY
 711:Drivers/STM32L0xx_HAL_Driver/Inc/stm32l0xx_ll_rtc.h ****   *         @arg @ref LL_RTC_WEEKDAY_SUNDAY
 712:Drivers/STM32L0xx_HAL_Driver/Inc/stm32l0xx_ll_rtc.h ****   */
 713:Drivers/STM32L0xx_HAL_Driver/Inc/stm32l0xx_ll_rtc.h **** #define __LL_RTC_GET_WEEKDAY(__RTC_DATE__) (((__RTC_DATE__) >> RTC_OFFSET_WEEKDAY) & 0x000000FFU)
 714:Drivers/STM32L0xx_HAL_Driver/Inc/stm32l0xx_ll_rtc.h **** 
 715:Drivers/STM32L0xx_HAL_Driver/Inc/stm32l0xx_ll_rtc.h **** /**
 716:Drivers/STM32L0xx_HAL_Driver/Inc/stm32l0xx_ll_rtc.h ****   * @brief  Helper macro to retrieve Year in BCD format
 717:Drivers/STM32L0xx_HAL_Driver/Inc/stm32l0xx_ll_rtc.h ****   * @param  __RTC_DATE__ Value returned by @ref  LL_RTC_DATE_Get
 718:Drivers/STM32L0xx_HAL_Driver/Inc/stm32l0xx_ll_rtc.h ****   * @retval Year in BCD format (0x00 . . . 0x99)
 719:Drivers/STM32L0xx_HAL_Driver/Inc/stm32l0xx_ll_rtc.h ****   */
 720:Drivers/STM32L0xx_HAL_Driver/Inc/stm32l0xx_ll_rtc.h **** #define __LL_RTC_GET_YEAR(__RTC_DATE__) ((__RTC_DATE__) & 0x000000FFU)
 721:Drivers/STM32L0xx_HAL_Driver/Inc/stm32l0xx_ll_rtc.h **** 
 722:Drivers/STM32L0xx_HAL_Driver/Inc/stm32l0xx_ll_rtc.h **** /**
 723:Drivers/STM32L0xx_HAL_Driver/Inc/stm32l0xx_ll_rtc.h ****   * @brief  Helper macro to retrieve Month in BCD format
 724:Drivers/STM32L0xx_HAL_Driver/Inc/stm32l0xx_ll_rtc.h ****   * @param  __RTC_DATE__ Value returned by @ref  LL_RTC_DATE_Get
 725:Drivers/STM32L0xx_HAL_Driver/Inc/stm32l0xx_ll_rtc.h ****   * @retval Returned value can be one of the following values:
 726:Drivers/STM32L0xx_HAL_Driver/Inc/stm32l0xx_ll_rtc.h ****   *         @arg @ref LL_RTC_MONTH_JANUARY
 727:Drivers/STM32L0xx_HAL_Driver/Inc/stm32l0xx_ll_rtc.h ****   *         @arg @ref LL_RTC_MONTH_FEBRUARY
 728:Drivers/STM32L0xx_HAL_Driver/Inc/stm32l0xx_ll_rtc.h ****   *         @arg @ref LL_RTC_MONTH_MARCH
 729:Drivers/STM32L0xx_HAL_Driver/Inc/stm32l0xx_ll_rtc.h ****   *         @arg @ref LL_RTC_MONTH_APRIL
 730:Drivers/STM32L0xx_HAL_Driver/Inc/stm32l0xx_ll_rtc.h ****   *         @arg @ref LL_RTC_MONTH_MAY
 731:Drivers/STM32L0xx_HAL_Driver/Inc/stm32l0xx_ll_rtc.h ****   *         @arg @ref LL_RTC_MONTH_JUNE
 732:Drivers/STM32L0xx_HAL_Driver/Inc/stm32l0xx_ll_rtc.h ****   *         @arg @ref LL_RTC_MONTH_JULY
 733:Drivers/STM32L0xx_HAL_Driver/Inc/stm32l0xx_ll_rtc.h ****   *         @arg @ref LL_RTC_MONTH_AUGUST
ARM GAS  /tmp/ccnIlCuV.s 			page 25


 734:Drivers/STM32L0xx_HAL_Driver/Inc/stm32l0xx_ll_rtc.h ****   *         @arg @ref LL_RTC_MONTH_SEPTEMBER
 735:Drivers/STM32L0xx_HAL_Driver/Inc/stm32l0xx_ll_rtc.h ****   *         @arg @ref LL_RTC_MONTH_OCTOBER
 736:Drivers/STM32L0xx_HAL_Driver/Inc/stm32l0xx_ll_rtc.h ****   *         @arg @ref LL_RTC_MONTH_NOVEMBER
 737:Drivers/STM32L0xx_HAL_Driver/Inc/stm32l0xx_ll_rtc.h ****   *         @arg @ref LL_RTC_MONTH_DECEMBER
 738:Drivers/STM32L0xx_HAL_Driver/Inc/stm32l0xx_ll_rtc.h ****   */
 739:Drivers/STM32L0xx_HAL_Driver/Inc/stm32l0xx_ll_rtc.h **** #define __LL_RTC_GET_MONTH(__RTC_DATE__) (((__RTC_DATE__) >>RTC_OFFSET_MONTH) & 0x000000FFU)
 740:Drivers/STM32L0xx_HAL_Driver/Inc/stm32l0xx_ll_rtc.h **** 
 741:Drivers/STM32L0xx_HAL_Driver/Inc/stm32l0xx_ll_rtc.h **** /**
 742:Drivers/STM32L0xx_HAL_Driver/Inc/stm32l0xx_ll_rtc.h ****   * @brief  Helper macro to retrieve Day in BCD format
 743:Drivers/STM32L0xx_HAL_Driver/Inc/stm32l0xx_ll_rtc.h ****   * @param  __RTC_DATE__ Value returned by @ref  LL_RTC_DATE_Get
 744:Drivers/STM32L0xx_HAL_Driver/Inc/stm32l0xx_ll_rtc.h ****   * @retval Day in BCD format (0x01 . . . 0x31)
 745:Drivers/STM32L0xx_HAL_Driver/Inc/stm32l0xx_ll_rtc.h ****   */
 746:Drivers/STM32L0xx_HAL_Driver/Inc/stm32l0xx_ll_rtc.h **** #define __LL_RTC_GET_DAY(__RTC_DATE__) (((__RTC_DATE__) >>RTC_OFFSET_DAY) & 0x000000FFU)
 747:Drivers/STM32L0xx_HAL_Driver/Inc/stm32l0xx_ll_rtc.h **** 
 748:Drivers/STM32L0xx_HAL_Driver/Inc/stm32l0xx_ll_rtc.h **** /**
 749:Drivers/STM32L0xx_HAL_Driver/Inc/stm32l0xx_ll_rtc.h ****   * @}
 750:Drivers/STM32L0xx_HAL_Driver/Inc/stm32l0xx_ll_rtc.h ****   */
 751:Drivers/STM32L0xx_HAL_Driver/Inc/stm32l0xx_ll_rtc.h **** 
 752:Drivers/STM32L0xx_HAL_Driver/Inc/stm32l0xx_ll_rtc.h **** /** @defgroup RTC_LL_EM_Time Time helper Macros
 753:Drivers/STM32L0xx_HAL_Driver/Inc/stm32l0xx_ll_rtc.h ****   * @{
 754:Drivers/STM32L0xx_HAL_Driver/Inc/stm32l0xx_ll_rtc.h ****   */
 755:Drivers/STM32L0xx_HAL_Driver/Inc/stm32l0xx_ll_rtc.h **** 
 756:Drivers/STM32L0xx_HAL_Driver/Inc/stm32l0xx_ll_rtc.h **** /**
 757:Drivers/STM32L0xx_HAL_Driver/Inc/stm32l0xx_ll_rtc.h ****   * @brief  Helper macro to retrieve hour in BCD format
 758:Drivers/STM32L0xx_HAL_Driver/Inc/stm32l0xx_ll_rtc.h ****   * @param  __RTC_TIME__ RTC time returned by @ref LL_RTC_TIME_Get function
 759:Drivers/STM32L0xx_HAL_Driver/Inc/stm32l0xx_ll_rtc.h ****   * @retval Hours in BCD format (0x01. . .0x12 or between Min_Data=0x00 and Max_Data=0x23)
 760:Drivers/STM32L0xx_HAL_Driver/Inc/stm32l0xx_ll_rtc.h ****   */
 761:Drivers/STM32L0xx_HAL_Driver/Inc/stm32l0xx_ll_rtc.h **** #define __LL_RTC_GET_HOUR(__RTC_TIME__) (((__RTC_TIME__) >> RTC_OFFSET_HOUR) & 0x000000FFU)
 762:Drivers/STM32L0xx_HAL_Driver/Inc/stm32l0xx_ll_rtc.h **** 
 763:Drivers/STM32L0xx_HAL_Driver/Inc/stm32l0xx_ll_rtc.h **** /**
 764:Drivers/STM32L0xx_HAL_Driver/Inc/stm32l0xx_ll_rtc.h ****   * @brief  Helper macro to retrieve minute in BCD format
 765:Drivers/STM32L0xx_HAL_Driver/Inc/stm32l0xx_ll_rtc.h ****   * @param  __RTC_TIME__ RTC time returned by @ref LL_RTC_TIME_Get function
 766:Drivers/STM32L0xx_HAL_Driver/Inc/stm32l0xx_ll_rtc.h ****   * @retval Minutes in BCD format (0x00. . .0x59)
 767:Drivers/STM32L0xx_HAL_Driver/Inc/stm32l0xx_ll_rtc.h ****   */
 768:Drivers/STM32L0xx_HAL_Driver/Inc/stm32l0xx_ll_rtc.h **** #define __LL_RTC_GET_MINUTE(__RTC_TIME__) (((__RTC_TIME__) >> RTC_OFFSET_MINUTE) & 0x000000FFU)
 769:Drivers/STM32L0xx_HAL_Driver/Inc/stm32l0xx_ll_rtc.h **** 
 770:Drivers/STM32L0xx_HAL_Driver/Inc/stm32l0xx_ll_rtc.h **** /**
 771:Drivers/STM32L0xx_HAL_Driver/Inc/stm32l0xx_ll_rtc.h ****   * @brief  Helper macro to retrieve second in BCD format
 772:Drivers/STM32L0xx_HAL_Driver/Inc/stm32l0xx_ll_rtc.h ****   * @param  __RTC_TIME__ RTC time returned by @ref LL_RTC_TIME_Get function
 773:Drivers/STM32L0xx_HAL_Driver/Inc/stm32l0xx_ll_rtc.h ****   * @retval Seconds in  format (0x00. . .0x59)
 774:Drivers/STM32L0xx_HAL_Driver/Inc/stm32l0xx_ll_rtc.h ****   */
 775:Drivers/STM32L0xx_HAL_Driver/Inc/stm32l0xx_ll_rtc.h **** #define __LL_RTC_GET_SECOND(__RTC_TIME__) ((__RTC_TIME__) & 0x000000FFU)
 776:Drivers/STM32L0xx_HAL_Driver/Inc/stm32l0xx_ll_rtc.h **** 
 777:Drivers/STM32L0xx_HAL_Driver/Inc/stm32l0xx_ll_rtc.h **** /**
 778:Drivers/STM32L0xx_HAL_Driver/Inc/stm32l0xx_ll_rtc.h ****   * @}
 779:Drivers/STM32L0xx_HAL_Driver/Inc/stm32l0xx_ll_rtc.h ****   */
 780:Drivers/STM32L0xx_HAL_Driver/Inc/stm32l0xx_ll_rtc.h **** 
 781:Drivers/STM32L0xx_HAL_Driver/Inc/stm32l0xx_ll_rtc.h **** /**
 782:Drivers/STM32L0xx_HAL_Driver/Inc/stm32l0xx_ll_rtc.h ****   * @}
 783:Drivers/STM32L0xx_HAL_Driver/Inc/stm32l0xx_ll_rtc.h ****   */
 784:Drivers/STM32L0xx_HAL_Driver/Inc/stm32l0xx_ll_rtc.h **** 
 785:Drivers/STM32L0xx_HAL_Driver/Inc/stm32l0xx_ll_rtc.h **** /* Exported functions --------------------------------------------------------*/
 786:Drivers/STM32L0xx_HAL_Driver/Inc/stm32l0xx_ll_rtc.h **** /** @defgroup RTC_LL_Exported_Functions RTC Exported Functions
 787:Drivers/STM32L0xx_HAL_Driver/Inc/stm32l0xx_ll_rtc.h ****   * @{
 788:Drivers/STM32L0xx_HAL_Driver/Inc/stm32l0xx_ll_rtc.h ****   */
 789:Drivers/STM32L0xx_HAL_Driver/Inc/stm32l0xx_ll_rtc.h **** 
 790:Drivers/STM32L0xx_HAL_Driver/Inc/stm32l0xx_ll_rtc.h **** /** @defgroup RTC_LL_EF_Configuration Configuration
ARM GAS  /tmp/ccnIlCuV.s 			page 26


 791:Drivers/STM32L0xx_HAL_Driver/Inc/stm32l0xx_ll_rtc.h ****   * @{
 792:Drivers/STM32L0xx_HAL_Driver/Inc/stm32l0xx_ll_rtc.h ****   */
 793:Drivers/STM32L0xx_HAL_Driver/Inc/stm32l0xx_ll_rtc.h **** 
 794:Drivers/STM32L0xx_HAL_Driver/Inc/stm32l0xx_ll_rtc.h **** /**
 795:Drivers/STM32L0xx_HAL_Driver/Inc/stm32l0xx_ll_rtc.h ****   * @brief  Set Hours format (24 hour/day or AM/PM hour format)
 796:Drivers/STM32L0xx_HAL_Driver/Inc/stm32l0xx_ll_rtc.h ****   * @note   Bit is write-protected. @ref LL_RTC_DisableWriteProtection function should be called be
 797:Drivers/STM32L0xx_HAL_Driver/Inc/stm32l0xx_ll_rtc.h ****   * @note   It can be written in initialization mode only (@ref LL_RTC_EnableInitMode function)
 798:Drivers/STM32L0xx_HAL_Driver/Inc/stm32l0xx_ll_rtc.h ****   * @rmtoll CR           FMT           LL_RTC_SetHourFormat
 799:Drivers/STM32L0xx_HAL_Driver/Inc/stm32l0xx_ll_rtc.h ****   * @param  RTCx RTC Instance
 800:Drivers/STM32L0xx_HAL_Driver/Inc/stm32l0xx_ll_rtc.h ****   * @param  HourFormat This parameter can be one of the following values:
 801:Drivers/STM32L0xx_HAL_Driver/Inc/stm32l0xx_ll_rtc.h ****   *         @arg @ref LL_RTC_HOURFORMAT_24HOUR
 802:Drivers/STM32L0xx_HAL_Driver/Inc/stm32l0xx_ll_rtc.h ****   *         @arg @ref LL_RTC_HOURFORMAT_AMPM
 803:Drivers/STM32L0xx_HAL_Driver/Inc/stm32l0xx_ll_rtc.h ****   * @retval None
 804:Drivers/STM32L0xx_HAL_Driver/Inc/stm32l0xx_ll_rtc.h ****   */
 805:Drivers/STM32L0xx_HAL_Driver/Inc/stm32l0xx_ll_rtc.h **** __STATIC_INLINE void LL_RTC_SetHourFormat(RTC_TypeDef *RTCx, uint32_t HourFormat)
 806:Drivers/STM32L0xx_HAL_Driver/Inc/stm32l0xx_ll_rtc.h **** {
 807:Drivers/STM32L0xx_HAL_Driver/Inc/stm32l0xx_ll_rtc.h ****   MODIFY_REG(RTCx->CR, RTC_CR_FMT, HourFormat);
 808:Drivers/STM32L0xx_HAL_Driver/Inc/stm32l0xx_ll_rtc.h **** }
 809:Drivers/STM32L0xx_HAL_Driver/Inc/stm32l0xx_ll_rtc.h **** 
 810:Drivers/STM32L0xx_HAL_Driver/Inc/stm32l0xx_ll_rtc.h **** /**
 811:Drivers/STM32L0xx_HAL_Driver/Inc/stm32l0xx_ll_rtc.h ****   * @brief  Get Hours format (24 hour/day or AM/PM hour format)
 812:Drivers/STM32L0xx_HAL_Driver/Inc/stm32l0xx_ll_rtc.h ****   * @rmtoll CR           FMT           LL_RTC_GetHourFormat
 813:Drivers/STM32L0xx_HAL_Driver/Inc/stm32l0xx_ll_rtc.h ****   * @param  RTCx RTC Instance
 814:Drivers/STM32L0xx_HAL_Driver/Inc/stm32l0xx_ll_rtc.h ****   * @retval Returned value can be one of the following values:
 815:Drivers/STM32L0xx_HAL_Driver/Inc/stm32l0xx_ll_rtc.h ****   *         @arg @ref LL_RTC_HOURFORMAT_24HOUR
 816:Drivers/STM32L0xx_HAL_Driver/Inc/stm32l0xx_ll_rtc.h ****   *         @arg @ref LL_RTC_HOURFORMAT_AMPM
 817:Drivers/STM32L0xx_HAL_Driver/Inc/stm32l0xx_ll_rtc.h ****   */
 818:Drivers/STM32L0xx_HAL_Driver/Inc/stm32l0xx_ll_rtc.h **** __STATIC_INLINE uint32_t LL_RTC_GetHourFormat(RTC_TypeDef *RTCx)
 819:Drivers/STM32L0xx_HAL_Driver/Inc/stm32l0xx_ll_rtc.h **** {
 820:Drivers/STM32L0xx_HAL_Driver/Inc/stm32l0xx_ll_rtc.h ****   return (uint32_t)(READ_BIT(RTCx->CR, RTC_CR_FMT));
 154              		.loc 2 820 0
 155 0014 8368     		ldr	r3, [r0, #8]
 156              	.LVL5:
 157              	.LBE121:
 158              	.LBE120:
 490:./Drivers/STM32L0xx_HAL_Driver/Src/stm32l0xx_ll_rtc.c ****   {
 491:./Drivers/STM32L0xx_HAL_Driver/Src/stm32l0xx_ll_rtc.c ****     if (LL_RTC_GetHourFormat(RTCx) != LL_RTC_HOURFORMAT_24HOUR)
 159              		.loc 1 491 0
 160 0016 5B06     		lsls	r3, r3, #25
 161 0018 01D4     		bmi	.L7
 492:./Drivers/STM32L0xx_HAL_Driver/Src/stm32l0xx_ll_rtc.c ****     {
 493:./Drivers/STM32L0xx_HAL_Driver/Src/stm32l0xx_ll_rtc.c ****       assert_param(IS_LL_RTC_HOUR12(RTC_AlarmStruct->AlarmTime.Hours));
 494:./Drivers/STM32L0xx_HAL_Driver/Src/stm32l0xx_ll_rtc.c ****       assert_param(IS_LL_RTC_TIME_FORMAT(RTC_AlarmStruct->AlarmTime.TimeFormat));
 495:./Drivers/STM32L0xx_HAL_Driver/Src/stm32l0xx_ll_rtc.c ****     }
 496:./Drivers/STM32L0xx_HAL_Driver/Src/stm32l0xx_ll_rtc.c ****     else
 497:./Drivers/STM32L0xx_HAL_Driver/Src/stm32l0xx_ll_rtc.c ****     {
 498:./Drivers/STM32L0xx_HAL_Driver/Src/stm32l0xx_ll_rtc.c ****       RTC_AlarmStruct->AlarmTime.TimeFormat = 0x00U;
 162              		.loc 1 498 0
 163 001a 0023     		movs	r3, #0
 164 001c 1360     		str	r3, [r2]
 165              	.L7:
 166              	.LVL6:
 167              	.LBB122:
 168              	.LBB123:
 821:Drivers/STM32L0xx_HAL_Driver/Inc/stm32l0xx_ll_rtc.h **** }
 822:Drivers/STM32L0xx_HAL_Driver/Inc/stm32l0xx_ll_rtc.h **** 
 823:Drivers/STM32L0xx_HAL_Driver/Inc/stm32l0xx_ll_rtc.h **** /**
ARM GAS  /tmp/ccnIlCuV.s 			page 27


 824:Drivers/STM32L0xx_HAL_Driver/Inc/stm32l0xx_ll_rtc.h ****   * @brief  Select the flag to be routed to RTC_ALARM output
 825:Drivers/STM32L0xx_HAL_Driver/Inc/stm32l0xx_ll_rtc.h ****   * @note   Bit is write-protected. @ref LL_RTC_DisableWriteProtection function should be called be
 826:Drivers/STM32L0xx_HAL_Driver/Inc/stm32l0xx_ll_rtc.h ****   * @rmtoll CR           OSEL          LL_RTC_SetAlarmOutEvent
 827:Drivers/STM32L0xx_HAL_Driver/Inc/stm32l0xx_ll_rtc.h ****   * @param  RTCx RTC Instance
 828:Drivers/STM32L0xx_HAL_Driver/Inc/stm32l0xx_ll_rtc.h ****   * @param  AlarmOutput This parameter can be one of the following values:
 829:Drivers/STM32L0xx_HAL_Driver/Inc/stm32l0xx_ll_rtc.h ****   *         @arg @ref LL_RTC_ALARMOUT_DISABLE
 830:Drivers/STM32L0xx_HAL_Driver/Inc/stm32l0xx_ll_rtc.h ****   *         @arg @ref LL_RTC_ALARMOUT_ALMA
 831:Drivers/STM32L0xx_HAL_Driver/Inc/stm32l0xx_ll_rtc.h ****   *         @arg @ref LL_RTC_ALARMOUT_ALMB
 832:Drivers/STM32L0xx_HAL_Driver/Inc/stm32l0xx_ll_rtc.h ****   *         @arg @ref LL_RTC_ALARMOUT_WAKEUP
 833:Drivers/STM32L0xx_HAL_Driver/Inc/stm32l0xx_ll_rtc.h ****   * @retval None
 834:Drivers/STM32L0xx_HAL_Driver/Inc/stm32l0xx_ll_rtc.h ****   */
 835:Drivers/STM32L0xx_HAL_Driver/Inc/stm32l0xx_ll_rtc.h **** __STATIC_INLINE void LL_RTC_SetAlarmOutEvent(RTC_TypeDef *RTCx, uint32_t AlarmOutput)
 836:Drivers/STM32L0xx_HAL_Driver/Inc/stm32l0xx_ll_rtc.h **** {
 837:Drivers/STM32L0xx_HAL_Driver/Inc/stm32l0xx_ll_rtc.h ****   MODIFY_REG(RTCx->CR, RTC_CR_OSEL, AlarmOutput);
 838:Drivers/STM32L0xx_HAL_Driver/Inc/stm32l0xx_ll_rtc.h **** }
 839:Drivers/STM32L0xx_HAL_Driver/Inc/stm32l0xx_ll_rtc.h **** 
 840:Drivers/STM32L0xx_HAL_Driver/Inc/stm32l0xx_ll_rtc.h **** /**
 841:Drivers/STM32L0xx_HAL_Driver/Inc/stm32l0xx_ll_rtc.h ****   * @brief  Get the flag to be routed to RTC_ALARM output
 842:Drivers/STM32L0xx_HAL_Driver/Inc/stm32l0xx_ll_rtc.h ****   * @rmtoll CR           OSEL          LL_RTC_GetAlarmOutEvent
 843:Drivers/STM32L0xx_HAL_Driver/Inc/stm32l0xx_ll_rtc.h ****   * @param  RTCx RTC Instance
 844:Drivers/STM32L0xx_HAL_Driver/Inc/stm32l0xx_ll_rtc.h ****   * @retval Returned value can be one of the following values:
 845:Drivers/STM32L0xx_HAL_Driver/Inc/stm32l0xx_ll_rtc.h ****   *         @arg @ref LL_RTC_ALARMOUT_DISABLE
 846:Drivers/STM32L0xx_HAL_Driver/Inc/stm32l0xx_ll_rtc.h ****   *         @arg @ref LL_RTC_ALARMOUT_ALMA
 847:Drivers/STM32L0xx_HAL_Driver/Inc/stm32l0xx_ll_rtc.h ****   *         @arg @ref LL_RTC_ALARMOUT_ALMB
 848:Drivers/STM32L0xx_HAL_Driver/Inc/stm32l0xx_ll_rtc.h ****   *         @arg @ref LL_RTC_ALARMOUT_WAKEUP
 849:Drivers/STM32L0xx_HAL_Driver/Inc/stm32l0xx_ll_rtc.h ****   */
 850:Drivers/STM32L0xx_HAL_Driver/Inc/stm32l0xx_ll_rtc.h **** __STATIC_INLINE uint32_t LL_RTC_GetAlarmOutEvent(RTC_TypeDef *RTCx)
 851:Drivers/STM32L0xx_HAL_Driver/Inc/stm32l0xx_ll_rtc.h **** {
 852:Drivers/STM32L0xx_HAL_Driver/Inc/stm32l0xx_ll_rtc.h ****   return (uint32_t)(READ_BIT(RTCx->CR, RTC_CR_OSEL));
 853:Drivers/STM32L0xx_HAL_Driver/Inc/stm32l0xx_ll_rtc.h **** }
 854:Drivers/STM32L0xx_HAL_Driver/Inc/stm32l0xx_ll_rtc.h **** 
 855:Drivers/STM32L0xx_HAL_Driver/Inc/stm32l0xx_ll_rtc.h **** /**
 856:Drivers/STM32L0xx_HAL_Driver/Inc/stm32l0xx_ll_rtc.h ****   * @brief  Set RTC_ALARM output type (ALARM in push-pull or open-drain output)
 857:Drivers/STM32L0xx_HAL_Driver/Inc/stm32l0xx_ll_rtc.h ****   * @note   Used only when RTC_ALARM is mapped on PC13
 858:Drivers/STM32L0xx_HAL_Driver/Inc/stm32l0xx_ll_rtc.h ****   * @rmtoll OR        ALARMOUTTYPE  LL_RTC_SetAlarmOutputType
 859:Drivers/STM32L0xx_HAL_Driver/Inc/stm32l0xx_ll_rtc.h ****   * @param  RTCx RTC Instance
 860:Drivers/STM32L0xx_HAL_Driver/Inc/stm32l0xx_ll_rtc.h ****   * @param  Output This parameter can be one of the following values:
 861:Drivers/STM32L0xx_HAL_Driver/Inc/stm32l0xx_ll_rtc.h ****   *         @arg @ref LL_RTC_ALARM_OUTPUTTYPE_OPENDRAIN
 862:Drivers/STM32L0xx_HAL_Driver/Inc/stm32l0xx_ll_rtc.h ****   *         @arg @ref LL_RTC_ALARM_OUTPUTTYPE_PUSHPULL
 863:Drivers/STM32L0xx_HAL_Driver/Inc/stm32l0xx_ll_rtc.h ****   * @retval None
 864:Drivers/STM32L0xx_HAL_Driver/Inc/stm32l0xx_ll_rtc.h ****   */
 865:Drivers/STM32L0xx_HAL_Driver/Inc/stm32l0xx_ll_rtc.h **** __STATIC_INLINE void LL_RTC_SetAlarmOutputType(RTC_TypeDef *RTCx, uint32_t Output)
 866:Drivers/STM32L0xx_HAL_Driver/Inc/stm32l0xx_ll_rtc.h **** {
 867:Drivers/STM32L0xx_HAL_Driver/Inc/stm32l0xx_ll_rtc.h ****   MODIFY_REG(RTCx->OR, RTC_OR_ALARMOUTTYPE, Output);
 868:Drivers/STM32L0xx_HAL_Driver/Inc/stm32l0xx_ll_rtc.h **** }
 869:Drivers/STM32L0xx_HAL_Driver/Inc/stm32l0xx_ll_rtc.h **** 
 870:Drivers/STM32L0xx_HAL_Driver/Inc/stm32l0xx_ll_rtc.h **** /**
 871:Drivers/STM32L0xx_HAL_Driver/Inc/stm32l0xx_ll_rtc.h ****   * @brief  Get RTC_ALARM output type (ALARM in push-pull or open-drain output)
 872:Drivers/STM32L0xx_HAL_Driver/Inc/stm32l0xx_ll_rtc.h ****   * @note   used only when RTC_ALARM is mapped on PC13
 873:Drivers/STM32L0xx_HAL_Driver/Inc/stm32l0xx_ll_rtc.h ****   * @rmtoll OR        ALARMOUTTYPE  LL_RTC_GetAlarmOutputType
 874:Drivers/STM32L0xx_HAL_Driver/Inc/stm32l0xx_ll_rtc.h ****   * @param  RTCx RTC Instance
 875:Drivers/STM32L0xx_HAL_Driver/Inc/stm32l0xx_ll_rtc.h ****   * @retval Returned value can be one of the following values:
 876:Drivers/STM32L0xx_HAL_Driver/Inc/stm32l0xx_ll_rtc.h ****   *         @arg @ref LL_RTC_ALARM_OUTPUTTYPE_OPENDRAIN
 877:Drivers/STM32L0xx_HAL_Driver/Inc/stm32l0xx_ll_rtc.h ****   *         @arg @ref LL_RTC_ALARM_OUTPUTTYPE_PUSHPULL
 878:Drivers/STM32L0xx_HAL_Driver/Inc/stm32l0xx_ll_rtc.h ****   */
 879:Drivers/STM32L0xx_HAL_Driver/Inc/stm32l0xx_ll_rtc.h **** __STATIC_INLINE uint32_t LL_RTC_GetAlarmOutputType(RTC_TypeDef *RTCx)
 880:Drivers/STM32L0xx_HAL_Driver/Inc/stm32l0xx_ll_rtc.h **** {
ARM GAS  /tmp/ccnIlCuV.s 			page 28


 881:Drivers/STM32L0xx_HAL_Driver/Inc/stm32l0xx_ll_rtc.h ****   return (uint32_t)(READ_BIT(RTCx->OR, RTC_OR_ALARMOUTTYPE));
 882:Drivers/STM32L0xx_HAL_Driver/Inc/stm32l0xx_ll_rtc.h **** }
 883:Drivers/STM32L0xx_HAL_Driver/Inc/stm32l0xx_ll_rtc.h **** 
 884:Drivers/STM32L0xx_HAL_Driver/Inc/stm32l0xx_ll_rtc.h **** /**
 885:Drivers/STM32L0xx_HAL_Driver/Inc/stm32l0xx_ll_rtc.h ****   * @brief  Enable initialization mode
 886:Drivers/STM32L0xx_HAL_Driver/Inc/stm32l0xx_ll_rtc.h ****   * @note   Initialization mode is used to program time and date register (RTC_TR and RTC_DR)
 887:Drivers/STM32L0xx_HAL_Driver/Inc/stm32l0xx_ll_rtc.h ****   *         and prescaler register (RTC_PRER).
 888:Drivers/STM32L0xx_HAL_Driver/Inc/stm32l0xx_ll_rtc.h ****   *         Counters are stopped and start counting from the new value when INIT is reset.
 889:Drivers/STM32L0xx_HAL_Driver/Inc/stm32l0xx_ll_rtc.h ****   * @rmtoll ISR          INIT          LL_RTC_EnableInitMode
 890:Drivers/STM32L0xx_HAL_Driver/Inc/stm32l0xx_ll_rtc.h ****   * @param  RTCx RTC Instance
 891:Drivers/STM32L0xx_HAL_Driver/Inc/stm32l0xx_ll_rtc.h ****   * @retval None
 892:Drivers/STM32L0xx_HAL_Driver/Inc/stm32l0xx_ll_rtc.h ****   */
 893:Drivers/STM32L0xx_HAL_Driver/Inc/stm32l0xx_ll_rtc.h **** __STATIC_INLINE void LL_RTC_EnableInitMode(RTC_TypeDef *RTCx)
 894:Drivers/STM32L0xx_HAL_Driver/Inc/stm32l0xx_ll_rtc.h **** {
 895:Drivers/STM32L0xx_HAL_Driver/Inc/stm32l0xx_ll_rtc.h ****   /* Set the Initialization mode */
 896:Drivers/STM32L0xx_HAL_Driver/Inc/stm32l0xx_ll_rtc.h ****   WRITE_REG(RTCx->ISR, RTC_INIT_MASK);
 897:Drivers/STM32L0xx_HAL_Driver/Inc/stm32l0xx_ll_rtc.h **** }
 898:Drivers/STM32L0xx_HAL_Driver/Inc/stm32l0xx_ll_rtc.h **** 
 899:Drivers/STM32L0xx_HAL_Driver/Inc/stm32l0xx_ll_rtc.h **** /**
 900:Drivers/STM32L0xx_HAL_Driver/Inc/stm32l0xx_ll_rtc.h ****   * @brief  Disable initialization mode (Free running mode)
 901:Drivers/STM32L0xx_HAL_Driver/Inc/stm32l0xx_ll_rtc.h ****   * @rmtoll ISR          INIT          LL_RTC_DisableInitMode
 902:Drivers/STM32L0xx_HAL_Driver/Inc/stm32l0xx_ll_rtc.h ****   * @param  RTCx RTC Instance
 903:Drivers/STM32L0xx_HAL_Driver/Inc/stm32l0xx_ll_rtc.h ****   * @retval None
 904:Drivers/STM32L0xx_HAL_Driver/Inc/stm32l0xx_ll_rtc.h ****   */
 905:Drivers/STM32L0xx_HAL_Driver/Inc/stm32l0xx_ll_rtc.h **** __STATIC_INLINE void LL_RTC_DisableInitMode(RTC_TypeDef *RTCx)
 906:Drivers/STM32L0xx_HAL_Driver/Inc/stm32l0xx_ll_rtc.h **** {
 907:Drivers/STM32L0xx_HAL_Driver/Inc/stm32l0xx_ll_rtc.h ****   /* Exit Initialization mode */
 908:Drivers/STM32L0xx_HAL_Driver/Inc/stm32l0xx_ll_rtc.h ****   WRITE_REG(RTCx->ISR, (uint32_t)~RTC_ISR_INIT);
 909:Drivers/STM32L0xx_HAL_Driver/Inc/stm32l0xx_ll_rtc.h **** }
 910:Drivers/STM32L0xx_HAL_Driver/Inc/stm32l0xx_ll_rtc.h **** 
 911:Drivers/STM32L0xx_HAL_Driver/Inc/stm32l0xx_ll_rtc.h **** /**
 912:Drivers/STM32L0xx_HAL_Driver/Inc/stm32l0xx_ll_rtc.h ****   * @brief  Set Output polarity (pin is low when ALRAF/ALRBF/WUTF is asserted)
 913:Drivers/STM32L0xx_HAL_Driver/Inc/stm32l0xx_ll_rtc.h ****   * @note   Bit is write-protected. @ref LL_RTC_DisableWriteProtection function should be called be
 914:Drivers/STM32L0xx_HAL_Driver/Inc/stm32l0xx_ll_rtc.h ****   * @rmtoll CR           POL           LL_RTC_SetOutputPolarity
 915:Drivers/STM32L0xx_HAL_Driver/Inc/stm32l0xx_ll_rtc.h ****   * @param  RTCx RTC Instance
 916:Drivers/STM32L0xx_HAL_Driver/Inc/stm32l0xx_ll_rtc.h ****   * @param  Polarity This parameter can be one of the following values:
 917:Drivers/STM32L0xx_HAL_Driver/Inc/stm32l0xx_ll_rtc.h ****   *         @arg @ref LL_RTC_OUTPUTPOLARITY_PIN_HIGH
 918:Drivers/STM32L0xx_HAL_Driver/Inc/stm32l0xx_ll_rtc.h ****   *         @arg @ref LL_RTC_OUTPUTPOLARITY_PIN_LOW
 919:Drivers/STM32L0xx_HAL_Driver/Inc/stm32l0xx_ll_rtc.h ****   * @retval None
 920:Drivers/STM32L0xx_HAL_Driver/Inc/stm32l0xx_ll_rtc.h ****   */
 921:Drivers/STM32L0xx_HAL_Driver/Inc/stm32l0xx_ll_rtc.h **** __STATIC_INLINE void LL_RTC_SetOutputPolarity(RTC_TypeDef *RTCx, uint32_t Polarity)
 922:Drivers/STM32L0xx_HAL_Driver/Inc/stm32l0xx_ll_rtc.h **** {
 923:Drivers/STM32L0xx_HAL_Driver/Inc/stm32l0xx_ll_rtc.h ****   MODIFY_REG(RTCx->CR, RTC_CR_POL, Polarity);
 924:Drivers/STM32L0xx_HAL_Driver/Inc/stm32l0xx_ll_rtc.h **** }
 925:Drivers/STM32L0xx_HAL_Driver/Inc/stm32l0xx_ll_rtc.h **** 
 926:Drivers/STM32L0xx_HAL_Driver/Inc/stm32l0xx_ll_rtc.h **** /**
 927:Drivers/STM32L0xx_HAL_Driver/Inc/stm32l0xx_ll_rtc.h ****   * @brief  Get Output polarity
 928:Drivers/STM32L0xx_HAL_Driver/Inc/stm32l0xx_ll_rtc.h ****   * @rmtoll CR           POL           LL_RTC_GetOutputPolarity
 929:Drivers/STM32L0xx_HAL_Driver/Inc/stm32l0xx_ll_rtc.h ****   * @param  RTCx RTC Instance
 930:Drivers/STM32L0xx_HAL_Driver/Inc/stm32l0xx_ll_rtc.h ****   * @retval Returned value can be one of the following values:
 931:Drivers/STM32L0xx_HAL_Driver/Inc/stm32l0xx_ll_rtc.h ****   *         @arg @ref LL_RTC_OUTPUTPOLARITY_PIN_HIGH
 932:Drivers/STM32L0xx_HAL_Driver/Inc/stm32l0xx_ll_rtc.h ****   *         @arg @ref LL_RTC_OUTPUTPOLARITY_PIN_LOW
 933:Drivers/STM32L0xx_HAL_Driver/Inc/stm32l0xx_ll_rtc.h ****   */
 934:Drivers/STM32L0xx_HAL_Driver/Inc/stm32l0xx_ll_rtc.h **** __STATIC_INLINE uint32_t LL_RTC_GetOutputPolarity(RTC_TypeDef *RTCx)
 935:Drivers/STM32L0xx_HAL_Driver/Inc/stm32l0xx_ll_rtc.h **** {
 936:Drivers/STM32L0xx_HAL_Driver/Inc/stm32l0xx_ll_rtc.h ****   return (uint32_t)(READ_BIT(RTCx->CR, RTC_CR_POL));
 937:Drivers/STM32L0xx_HAL_Driver/Inc/stm32l0xx_ll_rtc.h **** }
ARM GAS  /tmp/ccnIlCuV.s 			page 29


 938:Drivers/STM32L0xx_HAL_Driver/Inc/stm32l0xx_ll_rtc.h **** 
 939:Drivers/STM32L0xx_HAL_Driver/Inc/stm32l0xx_ll_rtc.h **** /**
 940:Drivers/STM32L0xx_HAL_Driver/Inc/stm32l0xx_ll_rtc.h ****   * @brief  Enable Bypass the shadow registers
 941:Drivers/STM32L0xx_HAL_Driver/Inc/stm32l0xx_ll_rtc.h ****   * @note   Bit is write-protected. @ref LL_RTC_DisableWriteProtection function should be called be
 942:Drivers/STM32L0xx_HAL_Driver/Inc/stm32l0xx_ll_rtc.h ****   * @rmtoll CR           BYPSHAD       LL_RTC_EnableShadowRegBypass
 943:Drivers/STM32L0xx_HAL_Driver/Inc/stm32l0xx_ll_rtc.h ****   * @param  RTCx RTC Instance
 944:Drivers/STM32L0xx_HAL_Driver/Inc/stm32l0xx_ll_rtc.h ****   * @retval None
 945:Drivers/STM32L0xx_HAL_Driver/Inc/stm32l0xx_ll_rtc.h ****   */
 946:Drivers/STM32L0xx_HAL_Driver/Inc/stm32l0xx_ll_rtc.h **** __STATIC_INLINE void LL_RTC_EnableShadowRegBypass(RTC_TypeDef *RTCx)
 947:Drivers/STM32L0xx_HAL_Driver/Inc/stm32l0xx_ll_rtc.h **** {
 948:Drivers/STM32L0xx_HAL_Driver/Inc/stm32l0xx_ll_rtc.h ****   SET_BIT(RTCx->CR, RTC_CR_BYPSHAD);
 949:Drivers/STM32L0xx_HAL_Driver/Inc/stm32l0xx_ll_rtc.h **** }
 950:Drivers/STM32L0xx_HAL_Driver/Inc/stm32l0xx_ll_rtc.h **** 
 951:Drivers/STM32L0xx_HAL_Driver/Inc/stm32l0xx_ll_rtc.h **** /**
 952:Drivers/STM32L0xx_HAL_Driver/Inc/stm32l0xx_ll_rtc.h ****   * @brief  Disable Bypass the shadow registers
 953:Drivers/STM32L0xx_HAL_Driver/Inc/stm32l0xx_ll_rtc.h ****   * @rmtoll CR           BYPSHAD       LL_RTC_DisableShadowRegBypass
 954:Drivers/STM32L0xx_HAL_Driver/Inc/stm32l0xx_ll_rtc.h ****   * @param  RTCx RTC Instance
 955:Drivers/STM32L0xx_HAL_Driver/Inc/stm32l0xx_ll_rtc.h ****   * @retval None
 956:Drivers/STM32L0xx_HAL_Driver/Inc/stm32l0xx_ll_rtc.h ****   */
 957:Drivers/STM32L0xx_HAL_Driver/Inc/stm32l0xx_ll_rtc.h **** __STATIC_INLINE void LL_RTC_DisableShadowRegBypass(RTC_TypeDef *RTCx)
 958:Drivers/STM32L0xx_HAL_Driver/Inc/stm32l0xx_ll_rtc.h **** {
 959:Drivers/STM32L0xx_HAL_Driver/Inc/stm32l0xx_ll_rtc.h ****   CLEAR_BIT(RTCx->CR, RTC_CR_BYPSHAD);
 960:Drivers/STM32L0xx_HAL_Driver/Inc/stm32l0xx_ll_rtc.h **** }
 961:Drivers/STM32L0xx_HAL_Driver/Inc/stm32l0xx_ll_rtc.h **** 
 962:Drivers/STM32L0xx_HAL_Driver/Inc/stm32l0xx_ll_rtc.h **** /**
 963:Drivers/STM32L0xx_HAL_Driver/Inc/stm32l0xx_ll_rtc.h ****   * @brief  Check if Shadow registers bypass is enabled or not.
 964:Drivers/STM32L0xx_HAL_Driver/Inc/stm32l0xx_ll_rtc.h ****   * @rmtoll CR           BYPSHAD       LL_RTC_IsShadowRegBypassEnabled
 965:Drivers/STM32L0xx_HAL_Driver/Inc/stm32l0xx_ll_rtc.h ****   * @param  RTCx RTC Instance
 966:Drivers/STM32L0xx_HAL_Driver/Inc/stm32l0xx_ll_rtc.h ****   * @retval State of bit (1 or 0).
 967:Drivers/STM32L0xx_HAL_Driver/Inc/stm32l0xx_ll_rtc.h ****   */
 968:Drivers/STM32L0xx_HAL_Driver/Inc/stm32l0xx_ll_rtc.h **** __STATIC_INLINE uint32_t LL_RTC_IsShadowRegBypassEnabled(RTC_TypeDef *RTCx)
 969:Drivers/STM32L0xx_HAL_Driver/Inc/stm32l0xx_ll_rtc.h **** {
 970:Drivers/STM32L0xx_HAL_Driver/Inc/stm32l0xx_ll_rtc.h ****   return (READ_BIT(RTCx->CR, RTC_CR_BYPSHAD) == (RTC_CR_BYPSHAD));
 971:Drivers/STM32L0xx_HAL_Driver/Inc/stm32l0xx_ll_rtc.h **** }
 972:Drivers/STM32L0xx_HAL_Driver/Inc/stm32l0xx_ll_rtc.h **** 
 973:Drivers/STM32L0xx_HAL_Driver/Inc/stm32l0xx_ll_rtc.h **** /**
 974:Drivers/STM32L0xx_HAL_Driver/Inc/stm32l0xx_ll_rtc.h ****   * @brief  Enable RTC_REFIN reference clock detection (50 or 60 Hz)
 975:Drivers/STM32L0xx_HAL_Driver/Inc/stm32l0xx_ll_rtc.h ****   * @note   Bit is write-protected. @ref LL_RTC_DisableWriteProtection function should be called be
 976:Drivers/STM32L0xx_HAL_Driver/Inc/stm32l0xx_ll_rtc.h ****   * @note   It can be written in initialization mode only (@ref LL_RTC_EnableInitMode function)
 977:Drivers/STM32L0xx_HAL_Driver/Inc/stm32l0xx_ll_rtc.h ****   * @rmtoll CR           REFCKON       LL_RTC_EnableRefClock
 978:Drivers/STM32L0xx_HAL_Driver/Inc/stm32l0xx_ll_rtc.h ****   * @param  RTCx RTC Instance
 979:Drivers/STM32L0xx_HAL_Driver/Inc/stm32l0xx_ll_rtc.h ****   * @retval None
 980:Drivers/STM32L0xx_HAL_Driver/Inc/stm32l0xx_ll_rtc.h ****   */
 981:Drivers/STM32L0xx_HAL_Driver/Inc/stm32l0xx_ll_rtc.h **** __STATIC_INLINE void LL_RTC_EnableRefClock(RTC_TypeDef *RTCx)
 982:Drivers/STM32L0xx_HAL_Driver/Inc/stm32l0xx_ll_rtc.h **** {
 983:Drivers/STM32L0xx_HAL_Driver/Inc/stm32l0xx_ll_rtc.h ****   SET_BIT(RTCx->CR, RTC_CR_REFCKON);
 984:Drivers/STM32L0xx_HAL_Driver/Inc/stm32l0xx_ll_rtc.h **** }
 985:Drivers/STM32L0xx_HAL_Driver/Inc/stm32l0xx_ll_rtc.h **** 
 986:Drivers/STM32L0xx_HAL_Driver/Inc/stm32l0xx_ll_rtc.h **** /**
 987:Drivers/STM32L0xx_HAL_Driver/Inc/stm32l0xx_ll_rtc.h ****   * @brief  Disable RTC_REFIN reference clock detection (50 or 60 Hz)
 988:Drivers/STM32L0xx_HAL_Driver/Inc/stm32l0xx_ll_rtc.h ****   * @note   Bit is write-protected. @ref LL_RTC_DisableWriteProtection function should be called be
 989:Drivers/STM32L0xx_HAL_Driver/Inc/stm32l0xx_ll_rtc.h ****   * @note   It can be written in initialization mode only (@ref LL_RTC_EnableInitMode function)
 990:Drivers/STM32L0xx_HAL_Driver/Inc/stm32l0xx_ll_rtc.h ****   * @rmtoll CR           REFCKON       LL_RTC_DisableRefClock
 991:Drivers/STM32L0xx_HAL_Driver/Inc/stm32l0xx_ll_rtc.h ****   * @param  RTCx RTC Instance
 992:Drivers/STM32L0xx_HAL_Driver/Inc/stm32l0xx_ll_rtc.h ****   * @retval None
 993:Drivers/STM32L0xx_HAL_Driver/Inc/stm32l0xx_ll_rtc.h ****   */
 994:Drivers/STM32L0xx_HAL_Driver/Inc/stm32l0xx_ll_rtc.h **** __STATIC_INLINE void LL_RTC_DisableRefClock(RTC_TypeDef *RTCx)
ARM GAS  /tmp/ccnIlCuV.s 			page 30


 995:Drivers/STM32L0xx_HAL_Driver/Inc/stm32l0xx_ll_rtc.h **** {
 996:Drivers/STM32L0xx_HAL_Driver/Inc/stm32l0xx_ll_rtc.h ****   CLEAR_BIT(RTCx->CR, RTC_CR_REFCKON);
 997:Drivers/STM32L0xx_HAL_Driver/Inc/stm32l0xx_ll_rtc.h **** }
 998:Drivers/STM32L0xx_HAL_Driver/Inc/stm32l0xx_ll_rtc.h **** 
 999:Drivers/STM32L0xx_HAL_Driver/Inc/stm32l0xx_ll_rtc.h **** /**
1000:Drivers/STM32L0xx_HAL_Driver/Inc/stm32l0xx_ll_rtc.h ****   * @brief  Set Asynchronous prescaler factor
1001:Drivers/STM32L0xx_HAL_Driver/Inc/stm32l0xx_ll_rtc.h ****   * @rmtoll PRER         PREDIV_A      LL_RTC_SetAsynchPrescaler
1002:Drivers/STM32L0xx_HAL_Driver/Inc/stm32l0xx_ll_rtc.h ****   * @param  RTCx RTC Instance
1003:Drivers/STM32L0xx_HAL_Driver/Inc/stm32l0xx_ll_rtc.h ****   * @param  AsynchPrescaler Value between Min_Data = 0 and Max_Data = 0x7F
1004:Drivers/STM32L0xx_HAL_Driver/Inc/stm32l0xx_ll_rtc.h ****   * @retval None
1005:Drivers/STM32L0xx_HAL_Driver/Inc/stm32l0xx_ll_rtc.h ****   */
1006:Drivers/STM32L0xx_HAL_Driver/Inc/stm32l0xx_ll_rtc.h **** __STATIC_INLINE void LL_RTC_SetAsynchPrescaler(RTC_TypeDef *RTCx, uint32_t AsynchPrescaler)
1007:Drivers/STM32L0xx_HAL_Driver/Inc/stm32l0xx_ll_rtc.h **** {
1008:Drivers/STM32L0xx_HAL_Driver/Inc/stm32l0xx_ll_rtc.h ****   MODIFY_REG(RTCx->PRER, RTC_PRER_PREDIV_A, AsynchPrescaler << RTC_POSITION_PRER_PREDIV_A);
1009:Drivers/STM32L0xx_HAL_Driver/Inc/stm32l0xx_ll_rtc.h **** }
1010:Drivers/STM32L0xx_HAL_Driver/Inc/stm32l0xx_ll_rtc.h **** 
1011:Drivers/STM32L0xx_HAL_Driver/Inc/stm32l0xx_ll_rtc.h **** /**
1012:Drivers/STM32L0xx_HAL_Driver/Inc/stm32l0xx_ll_rtc.h ****   * @brief  Set Synchronous prescaler factor
1013:Drivers/STM32L0xx_HAL_Driver/Inc/stm32l0xx_ll_rtc.h ****   * @rmtoll PRER         PREDIV_S      LL_RTC_SetSynchPrescaler
1014:Drivers/STM32L0xx_HAL_Driver/Inc/stm32l0xx_ll_rtc.h ****   * @param  RTCx RTC Instance
1015:Drivers/STM32L0xx_HAL_Driver/Inc/stm32l0xx_ll_rtc.h ****   * @param  SynchPrescaler Value between Min_Data = 0 and Max_Data = 0x7FFF
1016:Drivers/STM32L0xx_HAL_Driver/Inc/stm32l0xx_ll_rtc.h ****   * @retval None
1017:Drivers/STM32L0xx_HAL_Driver/Inc/stm32l0xx_ll_rtc.h ****   */
1018:Drivers/STM32L0xx_HAL_Driver/Inc/stm32l0xx_ll_rtc.h **** __STATIC_INLINE void LL_RTC_SetSynchPrescaler(RTC_TypeDef *RTCx, uint32_t SynchPrescaler)
1019:Drivers/STM32L0xx_HAL_Driver/Inc/stm32l0xx_ll_rtc.h **** {
1020:Drivers/STM32L0xx_HAL_Driver/Inc/stm32l0xx_ll_rtc.h ****   MODIFY_REG(RTCx->PRER, RTC_PRER_PREDIV_S, SynchPrescaler);
1021:Drivers/STM32L0xx_HAL_Driver/Inc/stm32l0xx_ll_rtc.h **** }
1022:Drivers/STM32L0xx_HAL_Driver/Inc/stm32l0xx_ll_rtc.h **** 
1023:Drivers/STM32L0xx_HAL_Driver/Inc/stm32l0xx_ll_rtc.h **** /**
1024:Drivers/STM32L0xx_HAL_Driver/Inc/stm32l0xx_ll_rtc.h ****   * @brief  Get Asynchronous prescaler factor
1025:Drivers/STM32L0xx_HAL_Driver/Inc/stm32l0xx_ll_rtc.h ****   * @rmtoll PRER         PREDIV_A      LL_RTC_GetAsynchPrescaler
1026:Drivers/STM32L0xx_HAL_Driver/Inc/stm32l0xx_ll_rtc.h ****   * @param  RTCx RTC Instance
1027:Drivers/STM32L0xx_HAL_Driver/Inc/stm32l0xx_ll_rtc.h ****   * @retval Value between Min_Data = 0 and Max_Data = 0x7F
1028:Drivers/STM32L0xx_HAL_Driver/Inc/stm32l0xx_ll_rtc.h ****   */
1029:Drivers/STM32L0xx_HAL_Driver/Inc/stm32l0xx_ll_rtc.h **** __STATIC_INLINE uint32_t LL_RTC_GetAsynchPrescaler(RTC_TypeDef *RTCx)
1030:Drivers/STM32L0xx_HAL_Driver/Inc/stm32l0xx_ll_rtc.h **** {
1031:Drivers/STM32L0xx_HAL_Driver/Inc/stm32l0xx_ll_rtc.h ****   return (uint32_t)(READ_BIT(RTCx->PRER, RTC_PRER_PREDIV_A) >> RTC_POSITION_PRER_PREDIV_A);
1032:Drivers/STM32L0xx_HAL_Driver/Inc/stm32l0xx_ll_rtc.h **** }
1033:Drivers/STM32L0xx_HAL_Driver/Inc/stm32l0xx_ll_rtc.h **** 
1034:Drivers/STM32L0xx_HAL_Driver/Inc/stm32l0xx_ll_rtc.h **** /**
1035:Drivers/STM32L0xx_HAL_Driver/Inc/stm32l0xx_ll_rtc.h ****   * @brief  Get Synchronous prescaler factor
1036:Drivers/STM32L0xx_HAL_Driver/Inc/stm32l0xx_ll_rtc.h ****   * @rmtoll PRER         PREDIV_S      LL_RTC_GetSynchPrescaler
1037:Drivers/STM32L0xx_HAL_Driver/Inc/stm32l0xx_ll_rtc.h ****   * @param  RTCx RTC Instance
1038:Drivers/STM32L0xx_HAL_Driver/Inc/stm32l0xx_ll_rtc.h ****   * @retval Value between Min_Data = 0 and Max_Data = 0x7FFF
1039:Drivers/STM32L0xx_HAL_Driver/Inc/stm32l0xx_ll_rtc.h ****   */
1040:Drivers/STM32L0xx_HAL_Driver/Inc/stm32l0xx_ll_rtc.h **** __STATIC_INLINE uint32_t LL_RTC_GetSynchPrescaler(RTC_TypeDef *RTCx)
1041:Drivers/STM32L0xx_HAL_Driver/Inc/stm32l0xx_ll_rtc.h **** {
1042:Drivers/STM32L0xx_HAL_Driver/Inc/stm32l0xx_ll_rtc.h ****   return (uint32_t)(READ_BIT(RTCx->PRER, RTC_PRER_PREDIV_S));
1043:Drivers/STM32L0xx_HAL_Driver/Inc/stm32l0xx_ll_rtc.h **** }
1044:Drivers/STM32L0xx_HAL_Driver/Inc/stm32l0xx_ll_rtc.h **** 
1045:Drivers/STM32L0xx_HAL_Driver/Inc/stm32l0xx_ll_rtc.h **** /**
1046:Drivers/STM32L0xx_HAL_Driver/Inc/stm32l0xx_ll_rtc.h ****   * @brief  Enable the write protection for RTC registers.
1047:Drivers/STM32L0xx_HAL_Driver/Inc/stm32l0xx_ll_rtc.h ****   * @rmtoll WPR          KEY           LL_RTC_EnableWriteProtection
1048:Drivers/STM32L0xx_HAL_Driver/Inc/stm32l0xx_ll_rtc.h ****   * @param  RTCx RTC Instance
1049:Drivers/STM32L0xx_HAL_Driver/Inc/stm32l0xx_ll_rtc.h ****   * @retval None
1050:Drivers/STM32L0xx_HAL_Driver/Inc/stm32l0xx_ll_rtc.h ****   */
1051:Drivers/STM32L0xx_HAL_Driver/Inc/stm32l0xx_ll_rtc.h **** __STATIC_INLINE void LL_RTC_EnableWriteProtection(RTC_TypeDef *RTCx)
ARM GAS  /tmp/ccnIlCuV.s 			page 31


1052:Drivers/STM32L0xx_HAL_Driver/Inc/stm32l0xx_ll_rtc.h **** {
1053:Drivers/STM32L0xx_HAL_Driver/Inc/stm32l0xx_ll_rtc.h ****   WRITE_REG(RTCx->WPR, RTC_WRITE_PROTECTION_DISABLE);
1054:Drivers/STM32L0xx_HAL_Driver/Inc/stm32l0xx_ll_rtc.h **** }
1055:Drivers/STM32L0xx_HAL_Driver/Inc/stm32l0xx_ll_rtc.h **** 
1056:Drivers/STM32L0xx_HAL_Driver/Inc/stm32l0xx_ll_rtc.h **** /**
1057:Drivers/STM32L0xx_HAL_Driver/Inc/stm32l0xx_ll_rtc.h ****   * @brief  Disable the write protection for RTC registers.
1058:Drivers/STM32L0xx_HAL_Driver/Inc/stm32l0xx_ll_rtc.h ****   * @rmtoll WPR          KEY           LL_RTC_DisableWriteProtection
1059:Drivers/STM32L0xx_HAL_Driver/Inc/stm32l0xx_ll_rtc.h ****   * @param  RTCx RTC Instance
1060:Drivers/STM32L0xx_HAL_Driver/Inc/stm32l0xx_ll_rtc.h ****   * @retval None
1061:Drivers/STM32L0xx_HAL_Driver/Inc/stm32l0xx_ll_rtc.h ****   */
1062:Drivers/STM32L0xx_HAL_Driver/Inc/stm32l0xx_ll_rtc.h **** __STATIC_INLINE void LL_RTC_DisableWriteProtection(RTC_TypeDef *RTCx)
1063:Drivers/STM32L0xx_HAL_Driver/Inc/stm32l0xx_ll_rtc.h **** {
1064:Drivers/STM32L0xx_HAL_Driver/Inc/stm32l0xx_ll_rtc.h ****   WRITE_REG(RTCx->WPR, RTC_WRITE_PROTECTION_ENABLE_1);
 169              		.loc 2 1064 0
 170 001e CA23     		movs	r3, #202
 171 0020 6362     		str	r3, [r4, #36]
1065:Drivers/STM32L0xx_HAL_Driver/Inc/stm32l0xx_ll_rtc.h ****   WRITE_REG(RTCx->WPR, RTC_WRITE_PROTECTION_ENABLE_2);
 172              		.loc 2 1065 0
 173 0022 773B     		subs	r3, r3, #119
 174 0024 6362     		str	r3, [r4, #36]
 175              	.LVL7:
 176              	.LBE123:
 177              	.LBE122:
 499:./Drivers/STM32L0xx_HAL_Driver/Src/stm32l0xx_ll_rtc.c ****       assert_param(IS_LL_RTC_HOUR24(RTC_AlarmStruct->AlarmTime.Hours));
 500:./Drivers/STM32L0xx_HAL_Driver/Src/stm32l0xx_ll_rtc.c ****     }
 501:./Drivers/STM32L0xx_HAL_Driver/Src/stm32l0xx_ll_rtc.c ****     assert_param(IS_LL_RTC_MINUTES(RTC_AlarmStruct->AlarmTime.Minutes));
 502:./Drivers/STM32L0xx_HAL_Driver/Src/stm32l0xx_ll_rtc.c ****     assert_param(IS_LL_RTC_SECONDS(RTC_AlarmStruct->AlarmTime.Seconds));
 503:./Drivers/STM32L0xx_HAL_Driver/Src/stm32l0xx_ll_rtc.c **** 
 504:./Drivers/STM32L0xx_HAL_Driver/Src/stm32l0xx_ll_rtc.c ****     if (RTC_AlarmStruct->AlarmDateWeekDaySel == LL_RTC_ALMA_DATEWEEKDAYSEL_DATE)
 505:./Drivers/STM32L0xx_HAL_Driver/Src/stm32l0xx_ll_rtc.c ****     {
 506:./Drivers/STM32L0xx_HAL_Driver/Src/stm32l0xx_ll_rtc.c ****       assert_param(IS_LL_RTC_DAY(RTC_AlarmStruct->AlarmDateWeekDay));
 507:./Drivers/STM32L0xx_HAL_Driver/Src/stm32l0xx_ll_rtc.c ****     }
 508:./Drivers/STM32L0xx_HAL_Driver/Src/stm32l0xx_ll_rtc.c ****     else
 509:./Drivers/STM32L0xx_HAL_Driver/Src/stm32l0xx_ll_rtc.c ****     {
 510:./Drivers/STM32L0xx_HAL_Driver/Src/stm32l0xx_ll_rtc.c ****       assert_param(IS_LL_RTC_WEEKDAY(RTC_AlarmStruct->AlarmDateWeekDay));
 511:./Drivers/STM32L0xx_HAL_Driver/Src/stm32l0xx_ll_rtc.c ****     }
 512:./Drivers/STM32L0xx_HAL_Driver/Src/stm32l0xx_ll_rtc.c ****   }
 513:./Drivers/STM32L0xx_HAL_Driver/Src/stm32l0xx_ll_rtc.c ****   else
 514:./Drivers/STM32L0xx_HAL_Driver/Src/stm32l0xx_ll_rtc.c ****   {
 515:./Drivers/STM32L0xx_HAL_Driver/Src/stm32l0xx_ll_rtc.c ****     if (LL_RTC_GetHourFormat(RTCx) != LL_RTC_HOURFORMAT_24HOUR)
 516:./Drivers/STM32L0xx_HAL_Driver/Src/stm32l0xx_ll_rtc.c ****     {
 517:./Drivers/STM32L0xx_HAL_Driver/Src/stm32l0xx_ll_rtc.c ****       assert_param(IS_LL_RTC_HOUR12(__LL_RTC_CONVERT_BCD2BIN(RTC_AlarmStruct->AlarmTime.Hours)));
 518:./Drivers/STM32L0xx_HAL_Driver/Src/stm32l0xx_ll_rtc.c ****       assert_param(IS_LL_RTC_TIME_FORMAT(RTC_AlarmStruct->AlarmTime.TimeFormat));
 519:./Drivers/STM32L0xx_HAL_Driver/Src/stm32l0xx_ll_rtc.c ****     }
 520:./Drivers/STM32L0xx_HAL_Driver/Src/stm32l0xx_ll_rtc.c ****     else
 521:./Drivers/STM32L0xx_HAL_Driver/Src/stm32l0xx_ll_rtc.c ****     {
 522:./Drivers/STM32L0xx_HAL_Driver/Src/stm32l0xx_ll_rtc.c ****       RTC_AlarmStruct->AlarmTime.TimeFormat = 0x00U;
 523:./Drivers/STM32L0xx_HAL_Driver/Src/stm32l0xx_ll_rtc.c ****       assert_param(IS_LL_RTC_HOUR24(__LL_RTC_CONVERT_BCD2BIN(RTC_AlarmStruct->AlarmTime.Hours)));
 524:./Drivers/STM32L0xx_HAL_Driver/Src/stm32l0xx_ll_rtc.c ****     }
 525:./Drivers/STM32L0xx_HAL_Driver/Src/stm32l0xx_ll_rtc.c **** 
 526:./Drivers/STM32L0xx_HAL_Driver/Src/stm32l0xx_ll_rtc.c ****     assert_param(IS_LL_RTC_MINUTES(__LL_RTC_CONVERT_BCD2BIN(RTC_AlarmStruct->AlarmTime.Minutes)));
 527:./Drivers/STM32L0xx_HAL_Driver/Src/stm32l0xx_ll_rtc.c ****     assert_param(IS_LL_RTC_SECONDS(__LL_RTC_CONVERT_BCD2BIN(RTC_AlarmStruct->AlarmTime.Seconds)));
 528:./Drivers/STM32L0xx_HAL_Driver/Src/stm32l0xx_ll_rtc.c **** 
 529:./Drivers/STM32L0xx_HAL_Driver/Src/stm32l0xx_ll_rtc.c ****     if (RTC_AlarmStruct->AlarmDateWeekDaySel == LL_RTC_ALMA_DATEWEEKDAYSEL_DATE)
 530:./Drivers/STM32L0xx_HAL_Driver/Src/stm32l0xx_ll_rtc.c ****     {
 531:./Drivers/STM32L0xx_HAL_Driver/Src/stm32l0xx_ll_rtc.c ****       assert_param(IS_LL_RTC_DAY(__LL_RTC_CONVERT_BCD2BIN(RTC_AlarmStruct->AlarmDateWeekDay)));
 532:./Drivers/STM32L0xx_HAL_Driver/Src/stm32l0xx_ll_rtc.c ****     }
ARM GAS  /tmp/ccnIlCuV.s 			page 32


 533:./Drivers/STM32L0xx_HAL_Driver/Src/stm32l0xx_ll_rtc.c ****     else
 534:./Drivers/STM32L0xx_HAL_Driver/Src/stm32l0xx_ll_rtc.c ****     {
 535:./Drivers/STM32L0xx_HAL_Driver/Src/stm32l0xx_ll_rtc.c ****       assert_param(IS_LL_RTC_WEEKDAY(__LL_RTC_CONVERT_BCD2BIN(RTC_AlarmStruct->AlarmDateWeekDay)));
 536:./Drivers/STM32L0xx_HAL_Driver/Src/stm32l0xx_ll_rtc.c ****     }
 537:./Drivers/STM32L0xx_HAL_Driver/Src/stm32l0xx_ll_rtc.c ****   }
 538:./Drivers/STM32L0xx_HAL_Driver/Src/stm32l0xx_ll_rtc.c **** 
 539:./Drivers/STM32L0xx_HAL_Driver/Src/stm32l0xx_ll_rtc.c ****   /* Disable the write protection for RTC registers */
 540:./Drivers/STM32L0xx_HAL_Driver/Src/stm32l0xx_ll_rtc.c ****   LL_RTC_DisableWriteProtection(RTCx);
 541:./Drivers/STM32L0xx_HAL_Driver/Src/stm32l0xx_ll_rtc.c **** 
 542:./Drivers/STM32L0xx_HAL_Driver/Src/stm32l0xx_ll_rtc.c ****   /* Select weekday selection */
 543:./Drivers/STM32L0xx_HAL_Driver/Src/stm32l0xx_ll_rtc.c ****   if (RTC_AlarmStruct->AlarmDateWeekDaySel == LL_RTC_ALMA_DATEWEEKDAYSEL_DATE)
 178              		.loc 1 543 0
 179 0026 EB68     		ldr	r3, [r5, #12]
 180 0028 002B     		cmp	r3, #0
 181 002a 28D1     		bne	.L9
 182              	.LVL8:
 183              	.LBB124:
 184              	.LBB125:
1066:Drivers/STM32L0xx_HAL_Driver/Inc/stm32l0xx_ll_rtc.h **** }
1067:Drivers/STM32L0xx_HAL_Driver/Inc/stm32l0xx_ll_rtc.h **** 
1068:Drivers/STM32L0xx_HAL_Driver/Inc/stm32l0xx_ll_rtc.h **** /**
1069:Drivers/STM32L0xx_HAL_Driver/Inc/stm32l0xx_ll_rtc.h ****   * @brief  Enable RTC_OUT remap
1070:Drivers/STM32L0xx_HAL_Driver/Inc/stm32l0xx_ll_rtc.h ****   * @rmtoll OR           OUT_RMP       LL_RTC_EnableOutRemap
1071:Drivers/STM32L0xx_HAL_Driver/Inc/stm32l0xx_ll_rtc.h ****   * @param  RTCx RTC Instance
1072:Drivers/STM32L0xx_HAL_Driver/Inc/stm32l0xx_ll_rtc.h ****   * @retval None
1073:Drivers/STM32L0xx_HAL_Driver/Inc/stm32l0xx_ll_rtc.h ****   */
1074:Drivers/STM32L0xx_HAL_Driver/Inc/stm32l0xx_ll_rtc.h **** __STATIC_INLINE void LL_RTC_EnableOutRemap(RTC_TypeDef *RTCx)
1075:Drivers/STM32L0xx_HAL_Driver/Inc/stm32l0xx_ll_rtc.h **** {
1076:Drivers/STM32L0xx_HAL_Driver/Inc/stm32l0xx_ll_rtc.h ****   SET_BIT(RTCx->OR, RTC_OR_OUT_RMP);
1077:Drivers/STM32L0xx_HAL_Driver/Inc/stm32l0xx_ll_rtc.h **** }
1078:Drivers/STM32L0xx_HAL_Driver/Inc/stm32l0xx_ll_rtc.h **** 
1079:Drivers/STM32L0xx_HAL_Driver/Inc/stm32l0xx_ll_rtc.h **** /**
1080:Drivers/STM32L0xx_HAL_Driver/Inc/stm32l0xx_ll_rtc.h ****   * @brief  Disable RTC_OUT remap
1081:Drivers/STM32L0xx_HAL_Driver/Inc/stm32l0xx_ll_rtc.h ****   * @rmtoll OR           OUT_RMP       LL_RTC_DisableOutRemap
1082:Drivers/STM32L0xx_HAL_Driver/Inc/stm32l0xx_ll_rtc.h ****   * @param  RTCx RTC Instance
1083:Drivers/STM32L0xx_HAL_Driver/Inc/stm32l0xx_ll_rtc.h ****   * @retval None
1084:Drivers/STM32L0xx_HAL_Driver/Inc/stm32l0xx_ll_rtc.h ****   */
1085:Drivers/STM32L0xx_HAL_Driver/Inc/stm32l0xx_ll_rtc.h **** __STATIC_INLINE void LL_RTC_DisableOutRemap(RTC_TypeDef *RTCx)
1086:Drivers/STM32L0xx_HAL_Driver/Inc/stm32l0xx_ll_rtc.h **** {
1087:Drivers/STM32L0xx_HAL_Driver/Inc/stm32l0xx_ll_rtc.h ****   CLEAR_BIT(RTCx->OR, RTC_OR_OUT_RMP);
1088:Drivers/STM32L0xx_HAL_Driver/Inc/stm32l0xx_ll_rtc.h **** }
1089:Drivers/STM32L0xx_HAL_Driver/Inc/stm32l0xx_ll_rtc.h **** 
1090:Drivers/STM32L0xx_HAL_Driver/Inc/stm32l0xx_ll_rtc.h **** /**
1091:Drivers/STM32L0xx_HAL_Driver/Inc/stm32l0xx_ll_rtc.h ****   * @}
1092:Drivers/STM32L0xx_HAL_Driver/Inc/stm32l0xx_ll_rtc.h ****   */
1093:Drivers/STM32L0xx_HAL_Driver/Inc/stm32l0xx_ll_rtc.h **** 
1094:Drivers/STM32L0xx_HAL_Driver/Inc/stm32l0xx_ll_rtc.h **** /** @defgroup RTC_LL_EF_Time Time
1095:Drivers/STM32L0xx_HAL_Driver/Inc/stm32l0xx_ll_rtc.h ****   * @{
1096:Drivers/STM32L0xx_HAL_Driver/Inc/stm32l0xx_ll_rtc.h ****   */
1097:Drivers/STM32L0xx_HAL_Driver/Inc/stm32l0xx_ll_rtc.h **** 
1098:Drivers/STM32L0xx_HAL_Driver/Inc/stm32l0xx_ll_rtc.h **** /**
1099:Drivers/STM32L0xx_HAL_Driver/Inc/stm32l0xx_ll_rtc.h ****   * @brief  Set time format (AM/24-hour or PM notation)
1100:Drivers/STM32L0xx_HAL_Driver/Inc/stm32l0xx_ll_rtc.h ****   * @note   Bit is write-protected. @ref LL_RTC_DisableWriteProtection function should be called be
1101:Drivers/STM32L0xx_HAL_Driver/Inc/stm32l0xx_ll_rtc.h ****   * @note   It can be written in initialization mode only (@ref LL_RTC_EnableInitMode function)
1102:Drivers/STM32L0xx_HAL_Driver/Inc/stm32l0xx_ll_rtc.h ****   * @rmtoll TR           PM            LL_RTC_TIME_SetFormat
1103:Drivers/STM32L0xx_HAL_Driver/Inc/stm32l0xx_ll_rtc.h ****   * @param  RTCx RTC Instance
1104:Drivers/STM32L0xx_HAL_Driver/Inc/stm32l0xx_ll_rtc.h ****   * @param  TimeFormat This parameter can be one of the following values:
ARM GAS  /tmp/ccnIlCuV.s 			page 33


1105:Drivers/STM32L0xx_HAL_Driver/Inc/stm32l0xx_ll_rtc.h ****   *         @arg @ref LL_RTC_TIME_FORMAT_AM_OR_24
1106:Drivers/STM32L0xx_HAL_Driver/Inc/stm32l0xx_ll_rtc.h ****   *         @arg @ref LL_RTC_TIME_FORMAT_PM
1107:Drivers/STM32L0xx_HAL_Driver/Inc/stm32l0xx_ll_rtc.h ****   * @retval None
1108:Drivers/STM32L0xx_HAL_Driver/Inc/stm32l0xx_ll_rtc.h ****   */
1109:Drivers/STM32L0xx_HAL_Driver/Inc/stm32l0xx_ll_rtc.h **** __STATIC_INLINE void LL_RTC_TIME_SetFormat(RTC_TypeDef *RTCx, uint32_t TimeFormat)
1110:Drivers/STM32L0xx_HAL_Driver/Inc/stm32l0xx_ll_rtc.h **** {
1111:Drivers/STM32L0xx_HAL_Driver/Inc/stm32l0xx_ll_rtc.h ****   MODIFY_REG(RTCx->TR, RTC_TR_PM, TimeFormat);
1112:Drivers/STM32L0xx_HAL_Driver/Inc/stm32l0xx_ll_rtc.h **** }
1113:Drivers/STM32L0xx_HAL_Driver/Inc/stm32l0xx_ll_rtc.h **** 
1114:Drivers/STM32L0xx_HAL_Driver/Inc/stm32l0xx_ll_rtc.h **** /**
1115:Drivers/STM32L0xx_HAL_Driver/Inc/stm32l0xx_ll_rtc.h ****   * @brief  Get time format (AM or PM notation)
1116:Drivers/STM32L0xx_HAL_Driver/Inc/stm32l0xx_ll_rtc.h ****   * @note if shadow mode is disabled (BYPSHAD=0), need to check if RSF flag is set
1117:Drivers/STM32L0xx_HAL_Driver/Inc/stm32l0xx_ll_rtc.h ****   *       before reading this bit
1118:Drivers/STM32L0xx_HAL_Driver/Inc/stm32l0xx_ll_rtc.h ****   * @note Read either RTC_SSR or RTC_TR locks the values in the higher-order calendar
1119:Drivers/STM32L0xx_HAL_Driver/Inc/stm32l0xx_ll_rtc.h ****   *       shadow registers until RTC_DR is read (LL_RTC_ReadReg(RTC, DR)).
1120:Drivers/STM32L0xx_HAL_Driver/Inc/stm32l0xx_ll_rtc.h ****   * @rmtoll TR           PM            LL_RTC_TIME_GetFormat
1121:Drivers/STM32L0xx_HAL_Driver/Inc/stm32l0xx_ll_rtc.h ****   * @param  RTCx RTC Instance
1122:Drivers/STM32L0xx_HAL_Driver/Inc/stm32l0xx_ll_rtc.h ****   * @retval Returned value can be one of the following values:
1123:Drivers/STM32L0xx_HAL_Driver/Inc/stm32l0xx_ll_rtc.h ****   *         @arg @ref LL_RTC_TIME_FORMAT_AM_OR_24
1124:Drivers/STM32L0xx_HAL_Driver/Inc/stm32l0xx_ll_rtc.h ****   *         @arg @ref LL_RTC_TIME_FORMAT_PM
1125:Drivers/STM32L0xx_HAL_Driver/Inc/stm32l0xx_ll_rtc.h ****   */
1126:Drivers/STM32L0xx_HAL_Driver/Inc/stm32l0xx_ll_rtc.h **** __STATIC_INLINE uint32_t LL_RTC_TIME_GetFormat(RTC_TypeDef *RTCx)
1127:Drivers/STM32L0xx_HAL_Driver/Inc/stm32l0xx_ll_rtc.h **** {
1128:Drivers/STM32L0xx_HAL_Driver/Inc/stm32l0xx_ll_rtc.h ****   return (uint32_t)(READ_BIT(RTCx->TR, RTC_TR_PM));
1129:Drivers/STM32L0xx_HAL_Driver/Inc/stm32l0xx_ll_rtc.h **** }
1130:Drivers/STM32L0xx_HAL_Driver/Inc/stm32l0xx_ll_rtc.h **** 
1131:Drivers/STM32L0xx_HAL_Driver/Inc/stm32l0xx_ll_rtc.h **** /**
1132:Drivers/STM32L0xx_HAL_Driver/Inc/stm32l0xx_ll_rtc.h ****   * @brief  Set Hours in BCD format
1133:Drivers/STM32L0xx_HAL_Driver/Inc/stm32l0xx_ll_rtc.h ****   * @note   Bit is write-protected. @ref LL_RTC_DisableWriteProtection function should be called be
1134:Drivers/STM32L0xx_HAL_Driver/Inc/stm32l0xx_ll_rtc.h ****   * @note   It can be written in initialization mode only (@ref LL_RTC_EnableInitMode function)
1135:Drivers/STM32L0xx_HAL_Driver/Inc/stm32l0xx_ll_rtc.h ****   * @note helper macro __LL_RTC_CONVERT_BIN2BCD is available to convert hour from binary to BCD for
1136:Drivers/STM32L0xx_HAL_Driver/Inc/stm32l0xx_ll_rtc.h ****   * @rmtoll TR           HT            LL_RTC_TIME_SetHour\n
1137:Drivers/STM32L0xx_HAL_Driver/Inc/stm32l0xx_ll_rtc.h ****   *         TR           HU            LL_RTC_TIME_SetHour
1138:Drivers/STM32L0xx_HAL_Driver/Inc/stm32l0xx_ll_rtc.h ****   * @param  RTCx RTC Instance
1139:Drivers/STM32L0xx_HAL_Driver/Inc/stm32l0xx_ll_rtc.h ****   * @param  Hours Value between Min_Data=0x01 and Max_Data=0x12 or between Min_Data=0x00 and Max_Da
1140:Drivers/STM32L0xx_HAL_Driver/Inc/stm32l0xx_ll_rtc.h ****   * @retval None
1141:Drivers/STM32L0xx_HAL_Driver/Inc/stm32l0xx_ll_rtc.h ****   */
1142:Drivers/STM32L0xx_HAL_Driver/Inc/stm32l0xx_ll_rtc.h **** __STATIC_INLINE void LL_RTC_TIME_SetHour(RTC_TypeDef *RTCx, uint32_t Hours)
1143:Drivers/STM32L0xx_HAL_Driver/Inc/stm32l0xx_ll_rtc.h **** {
1144:Drivers/STM32L0xx_HAL_Driver/Inc/stm32l0xx_ll_rtc.h ****   MODIFY_REG(RTCx->TR, (RTC_TR_HT | RTC_TR_HU),
1145:Drivers/STM32L0xx_HAL_Driver/Inc/stm32l0xx_ll_rtc.h ****              (((Hours & 0xF0U) << (RTC_POSITION_TR_HT - 4U)) | ((Hours & 0x0FU) << RTC_POSITION_TR_
1146:Drivers/STM32L0xx_HAL_Driver/Inc/stm32l0xx_ll_rtc.h **** }
1147:Drivers/STM32L0xx_HAL_Driver/Inc/stm32l0xx_ll_rtc.h **** 
1148:Drivers/STM32L0xx_HAL_Driver/Inc/stm32l0xx_ll_rtc.h **** /**
1149:Drivers/STM32L0xx_HAL_Driver/Inc/stm32l0xx_ll_rtc.h ****   * @brief  Get Hours in BCD format
1150:Drivers/STM32L0xx_HAL_Driver/Inc/stm32l0xx_ll_rtc.h ****   * @note if shadow mode is disabled (BYPSHAD=0), need to check if RSF flag is set
1151:Drivers/STM32L0xx_HAL_Driver/Inc/stm32l0xx_ll_rtc.h ****   *       before reading this bit
1152:Drivers/STM32L0xx_HAL_Driver/Inc/stm32l0xx_ll_rtc.h ****   * @note Read either RTC_SSR or RTC_TR locks the values in the higher-order calendar
1153:Drivers/STM32L0xx_HAL_Driver/Inc/stm32l0xx_ll_rtc.h ****   *       shadow registers until RTC_DR is read (LL_RTC_ReadReg(RTC, DR)).
1154:Drivers/STM32L0xx_HAL_Driver/Inc/stm32l0xx_ll_rtc.h ****   * @note helper macro __LL_RTC_CONVERT_BCD2BIN is available to convert hour from BCD to
1155:Drivers/STM32L0xx_HAL_Driver/Inc/stm32l0xx_ll_rtc.h ****   *       Binary format
1156:Drivers/STM32L0xx_HAL_Driver/Inc/stm32l0xx_ll_rtc.h ****   * @rmtoll TR           HT            LL_RTC_TIME_GetHour\n
1157:Drivers/STM32L0xx_HAL_Driver/Inc/stm32l0xx_ll_rtc.h ****   *         TR           HU            LL_RTC_TIME_GetHour
1158:Drivers/STM32L0xx_HAL_Driver/Inc/stm32l0xx_ll_rtc.h ****   * @param  RTCx RTC Instance
1159:Drivers/STM32L0xx_HAL_Driver/Inc/stm32l0xx_ll_rtc.h ****   * @retval Value between Min_Data=0x01 and Max_Data=0x12 or between Min_Data=0x00 and Max_Data=0x2
1160:Drivers/STM32L0xx_HAL_Driver/Inc/stm32l0xx_ll_rtc.h ****   */
1161:Drivers/STM32L0xx_HAL_Driver/Inc/stm32l0xx_ll_rtc.h **** __STATIC_INLINE uint32_t LL_RTC_TIME_GetHour(RTC_TypeDef *RTCx)
ARM GAS  /tmp/ccnIlCuV.s 			page 34


1162:Drivers/STM32L0xx_HAL_Driver/Inc/stm32l0xx_ll_rtc.h **** {
1163:Drivers/STM32L0xx_HAL_Driver/Inc/stm32l0xx_ll_rtc.h ****   register uint32_t temp = 0U;
1164:Drivers/STM32L0xx_HAL_Driver/Inc/stm32l0xx_ll_rtc.h **** 
1165:Drivers/STM32L0xx_HAL_Driver/Inc/stm32l0xx_ll_rtc.h ****   temp = READ_BIT(RTCx->TR, (RTC_TR_HT | RTC_TR_HU));
1166:Drivers/STM32L0xx_HAL_Driver/Inc/stm32l0xx_ll_rtc.h ****   return (uint32_t)((((temp & RTC_TR_HT) >> RTC_POSITION_TR_HT) << 4U) | ((temp & RTC_TR_HU) >> RTC
1167:Drivers/STM32L0xx_HAL_Driver/Inc/stm32l0xx_ll_rtc.h **** }
1168:Drivers/STM32L0xx_HAL_Driver/Inc/stm32l0xx_ll_rtc.h **** 
1169:Drivers/STM32L0xx_HAL_Driver/Inc/stm32l0xx_ll_rtc.h **** /**
1170:Drivers/STM32L0xx_HAL_Driver/Inc/stm32l0xx_ll_rtc.h ****   * @brief  Set Minutes in BCD format
1171:Drivers/STM32L0xx_HAL_Driver/Inc/stm32l0xx_ll_rtc.h ****   * @note   Bit is write-protected. @ref LL_RTC_DisableWriteProtection function should be called be
1172:Drivers/STM32L0xx_HAL_Driver/Inc/stm32l0xx_ll_rtc.h ****   * @note   It can be written in initialization mode only (@ref LL_RTC_EnableInitMode function)
1173:Drivers/STM32L0xx_HAL_Driver/Inc/stm32l0xx_ll_rtc.h ****   * @note helper macro __LL_RTC_CONVERT_BIN2BCD is available to convert Minutes from binary to BCD 
1174:Drivers/STM32L0xx_HAL_Driver/Inc/stm32l0xx_ll_rtc.h ****   * @rmtoll TR           MNT           LL_RTC_TIME_SetMinute\n
1175:Drivers/STM32L0xx_HAL_Driver/Inc/stm32l0xx_ll_rtc.h ****   *         TR           MNU           LL_RTC_TIME_SetMinute
1176:Drivers/STM32L0xx_HAL_Driver/Inc/stm32l0xx_ll_rtc.h ****   * @param  RTCx RTC Instance
1177:Drivers/STM32L0xx_HAL_Driver/Inc/stm32l0xx_ll_rtc.h ****   * @param  Minutes Value between Min_Data=0x00 and Max_Data=0x59
1178:Drivers/STM32L0xx_HAL_Driver/Inc/stm32l0xx_ll_rtc.h ****   * @retval None
1179:Drivers/STM32L0xx_HAL_Driver/Inc/stm32l0xx_ll_rtc.h ****   */
1180:Drivers/STM32L0xx_HAL_Driver/Inc/stm32l0xx_ll_rtc.h **** __STATIC_INLINE void LL_RTC_TIME_SetMinute(RTC_TypeDef *RTCx, uint32_t Minutes)
1181:Drivers/STM32L0xx_HAL_Driver/Inc/stm32l0xx_ll_rtc.h **** {
1182:Drivers/STM32L0xx_HAL_Driver/Inc/stm32l0xx_ll_rtc.h ****   MODIFY_REG(RTCx->TR, (RTC_TR_MNT | RTC_TR_MNU),
1183:Drivers/STM32L0xx_HAL_Driver/Inc/stm32l0xx_ll_rtc.h ****              (((Minutes & 0xF0U) << (RTC_POSITION_TR_MT - 4U)) | ((Minutes & 0x0FU) << RTC_POSITION
1184:Drivers/STM32L0xx_HAL_Driver/Inc/stm32l0xx_ll_rtc.h **** }
1185:Drivers/STM32L0xx_HAL_Driver/Inc/stm32l0xx_ll_rtc.h **** 
1186:Drivers/STM32L0xx_HAL_Driver/Inc/stm32l0xx_ll_rtc.h **** /**
1187:Drivers/STM32L0xx_HAL_Driver/Inc/stm32l0xx_ll_rtc.h ****   * @brief  Get Minutes in BCD format
1188:Drivers/STM32L0xx_HAL_Driver/Inc/stm32l0xx_ll_rtc.h ****   * @note if shadow mode is disabled (BYPSHAD=0), need to check if RSF flag is set
1189:Drivers/STM32L0xx_HAL_Driver/Inc/stm32l0xx_ll_rtc.h ****   *       before reading this bit
1190:Drivers/STM32L0xx_HAL_Driver/Inc/stm32l0xx_ll_rtc.h ****   * @note Read either RTC_SSR or RTC_TR locks the values in the higher-order calendar
1191:Drivers/STM32L0xx_HAL_Driver/Inc/stm32l0xx_ll_rtc.h ****   *       shadow registers until RTC_DR is read (LL_RTC_ReadReg(RTC, DR)).
1192:Drivers/STM32L0xx_HAL_Driver/Inc/stm32l0xx_ll_rtc.h ****   * @note helper macro __LL_RTC_CONVERT_BCD2BIN is available to convert minute from BCD
1193:Drivers/STM32L0xx_HAL_Driver/Inc/stm32l0xx_ll_rtc.h ****   *       to Binary format
1194:Drivers/STM32L0xx_HAL_Driver/Inc/stm32l0xx_ll_rtc.h ****   * @rmtoll TR           MNT           LL_RTC_TIME_GetMinute\n
1195:Drivers/STM32L0xx_HAL_Driver/Inc/stm32l0xx_ll_rtc.h ****   *         TR           MNU           LL_RTC_TIME_GetMinute
1196:Drivers/STM32L0xx_HAL_Driver/Inc/stm32l0xx_ll_rtc.h ****   * @param  RTCx RTC Instance
1197:Drivers/STM32L0xx_HAL_Driver/Inc/stm32l0xx_ll_rtc.h ****   * @retval Value between Min_Data=0x00 and Max_Data=0x59
1198:Drivers/STM32L0xx_HAL_Driver/Inc/stm32l0xx_ll_rtc.h ****   */
1199:Drivers/STM32L0xx_HAL_Driver/Inc/stm32l0xx_ll_rtc.h **** __STATIC_INLINE uint32_t LL_RTC_TIME_GetMinute(RTC_TypeDef *RTCx)
1200:Drivers/STM32L0xx_HAL_Driver/Inc/stm32l0xx_ll_rtc.h **** {
1201:Drivers/STM32L0xx_HAL_Driver/Inc/stm32l0xx_ll_rtc.h ****   register uint32_t temp = 0U;
1202:Drivers/STM32L0xx_HAL_Driver/Inc/stm32l0xx_ll_rtc.h **** 
1203:Drivers/STM32L0xx_HAL_Driver/Inc/stm32l0xx_ll_rtc.h ****   temp = READ_BIT(RTCx->TR, (RTC_TR_MNT | RTC_TR_MNU));
1204:Drivers/STM32L0xx_HAL_Driver/Inc/stm32l0xx_ll_rtc.h ****   return (uint32_t)((((temp & RTC_TR_MNT) >> RTC_POSITION_TR_MT) << 4U) | ((temp & RTC_TR_MNU) >> R
1205:Drivers/STM32L0xx_HAL_Driver/Inc/stm32l0xx_ll_rtc.h **** }
1206:Drivers/STM32L0xx_HAL_Driver/Inc/stm32l0xx_ll_rtc.h **** 
1207:Drivers/STM32L0xx_HAL_Driver/Inc/stm32l0xx_ll_rtc.h **** /**
1208:Drivers/STM32L0xx_HAL_Driver/Inc/stm32l0xx_ll_rtc.h ****   * @brief  Set Seconds in BCD format
1209:Drivers/STM32L0xx_HAL_Driver/Inc/stm32l0xx_ll_rtc.h ****   * @note   Bit is write-protected. @ref LL_RTC_DisableWriteProtection function should be called be
1210:Drivers/STM32L0xx_HAL_Driver/Inc/stm32l0xx_ll_rtc.h ****   * @note   It can be written in initialization mode only (@ref LL_RTC_EnableInitMode function)
1211:Drivers/STM32L0xx_HAL_Driver/Inc/stm32l0xx_ll_rtc.h ****   * @note helper macro __LL_RTC_CONVERT_BIN2BCD is available to convert Seconds from binary to BCD 
1212:Drivers/STM32L0xx_HAL_Driver/Inc/stm32l0xx_ll_rtc.h ****   * @rmtoll TR           ST            LL_RTC_TIME_SetSecond\n
1213:Drivers/STM32L0xx_HAL_Driver/Inc/stm32l0xx_ll_rtc.h ****   *         TR           SU            LL_RTC_TIME_SetSecond
1214:Drivers/STM32L0xx_HAL_Driver/Inc/stm32l0xx_ll_rtc.h ****   * @param  RTCx RTC Instance
1215:Drivers/STM32L0xx_HAL_Driver/Inc/stm32l0xx_ll_rtc.h ****   * @param  Seconds Value between Min_Data=0x00 and Max_Data=0x59
1216:Drivers/STM32L0xx_HAL_Driver/Inc/stm32l0xx_ll_rtc.h ****   * @retval None
1217:Drivers/STM32L0xx_HAL_Driver/Inc/stm32l0xx_ll_rtc.h ****   */
1218:Drivers/STM32L0xx_HAL_Driver/Inc/stm32l0xx_ll_rtc.h **** __STATIC_INLINE void LL_RTC_TIME_SetSecond(RTC_TypeDef *RTCx, uint32_t Seconds)
ARM GAS  /tmp/ccnIlCuV.s 			page 35


1219:Drivers/STM32L0xx_HAL_Driver/Inc/stm32l0xx_ll_rtc.h **** {
1220:Drivers/STM32L0xx_HAL_Driver/Inc/stm32l0xx_ll_rtc.h ****   MODIFY_REG(RTCx->TR, (RTC_TR_ST | RTC_TR_SU),
1221:Drivers/STM32L0xx_HAL_Driver/Inc/stm32l0xx_ll_rtc.h ****              (((Seconds & 0xF0U) << (RTC_POSITION_TR_ST - 4U)) | ((Seconds & 0x0FU) << RTC_POSITION
1222:Drivers/STM32L0xx_HAL_Driver/Inc/stm32l0xx_ll_rtc.h **** }
1223:Drivers/STM32L0xx_HAL_Driver/Inc/stm32l0xx_ll_rtc.h **** 
1224:Drivers/STM32L0xx_HAL_Driver/Inc/stm32l0xx_ll_rtc.h **** /**
1225:Drivers/STM32L0xx_HAL_Driver/Inc/stm32l0xx_ll_rtc.h ****   * @brief  Get Seconds in BCD format
1226:Drivers/STM32L0xx_HAL_Driver/Inc/stm32l0xx_ll_rtc.h ****   * @note if shadow mode is disabled (BYPSHAD=0), need to check if RSF flag is set
1227:Drivers/STM32L0xx_HAL_Driver/Inc/stm32l0xx_ll_rtc.h ****   *       before reading this bit
1228:Drivers/STM32L0xx_HAL_Driver/Inc/stm32l0xx_ll_rtc.h ****   * @note Read either RTC_SSR or RTC_TR locks the values in the higher-order calendar
1229:Drivers/STM32L0xx_HAL_Driver/Inc/stm32l0xx_ll_rtc.h ****   *       shadow registers until RTC_DR is read (LL_RTC_ReadReg(RTC, DR)).
1230:Drivers/STM32L0xx_HAL_Driver/Inc/stm32l0xx_ll_rtc.h ****   * @note helper macro __LL_RTC_CONVERT_BCD2BIN is available to convert Seconds from BCD
1231:Drivers/STM32L0xx_HAL_Driver/Inc/stm32l0xx_ll_rtc.h ****   *       to Binary format
1232:Drivers/STM32L0xx_HAL_Driver/Inc/stm32l0xx_ll_rtc.h ****   * @rmtoll TR           ST            LL_RTC_TIME_GetSecond\n
1233:Drivers/STM32L0xx_HAL_Driver/Inc/stm32l0xx_ll_rtc.h ****   *         TR           SU            LL_RTC_TIME_GetSecond
1234:Drivers/STM32L0xx_HAL_Driver/Inc/stm32l0xx_ll_rtc.h ****   * @param  RTCx RTC Instance
1235:Drivers/STM32L0xx_HAL_Driver/Inc/stm32l0xx_ll_rtc.h ****   * @retval Value between Min_Data=0x00 and Max_Data=0x59
1236:Drivers/STM32L0xx_HAL_Driver/Inc/stm32l0xx_ll_rtc.h ****   */
1237:Drivers/STM32L0xx_HAL_Driver/Inc/stm32l0xx_ll_rtc.h **** __STATIC_INLINE uint32_t LL_RTC_TIME_GetSecond(RTC_TypeDef *RTCx)
1238:Drivers/STM32L0xx_HAL_Driver/Inc/stm32l0xx_ll_rtc.h **** {
1239:Drivers/STM32L0xx_HAL_Driver/Inc/stm32l0xx_ll_rtc.h ****   register uint32_t temp = 0U;
1240:Drivers/STM32L0xx_HAL_Driver/Inc/stm32l0xx_ll_rtc.h **** 
1241:Drivers/STM32L0xx_HAL_Driver/Inc/stm32l0xx_ll_rtc.h ****   temp = READ_BIT(RTCx->TR, (RTC_TR_ST | RTC_TR_SU));
1242:Drivers/STM32L0xx_HAL_Driver/Inc/stm32l0xx_ll_rtc.h ****   return (uint32_t)((((temp & RTC_TR_ST) >> RTC_POSITION_TR_ST) << 4U) | ((temp & RTC_TR_SU) >> RTC
1243:Drivers/STM32L0xx_HAL_Driver/Inc/stm32l0xx_ll_rtc.h **** }
1244:Drivers/STM32L0xx_HAL_Driver/Inc/stm32l0xx_ll_rtc.h **** 
1245:Drivers/STM32L0xx_HAL_Driver/Inc/stm32l0xx_ll_rtc.h **** /**
1246:Drivers/STM32L0xx_HAL_Driver/Inc/stm32l0xx_ll_rtc.h ****   * @brief  Set time (hour, minute and second) in BCD format
1247:Drivers/STM32L0xx_HAL_Driver/Inc/stm32l0xx_ll_rtc.h ****   * @note   Bit is write-protected. @ref LL_RTC_DisableWriteProtection function should be called be
1248:Drivers/STM32L0xx_HAL_Driver/Inc/stm32l0xx_ll_rtc.h ****   * @note   It can be written in initialization mode only (@ref LL_RTC_EnableInitMode function)
1249:Drivers/STM32L0xx_HAL_Driver/Inc/stm32l0xx_ll_rtc.h ****   * @note TimeFormat and Hours should follow the same format
1250:Drivers/STM32L0xx_HAL_Driver/Inc/stm32l0xx_ll_rtc.h ****   * @rmtoll TR           PM            LL_RTC_TIME_Config\n
1251:Drivers/STM32L0xx_HAL_Driver/Inc/stm32l0xx_ll_rtc.h ****   *         TR           HT            LL_RTC_TIME_Config\n
1252:Drivers/STM32L0xx_HAL_Driver/Inc/stm32l0xx_ll_rtc.h ****   *         TR           HU            LL_RTC_TIME_Config\n
1253:Drivers/STM32L0xx_HAL_Driver/Inc/stm32l0xx_ll_rtc.h ****   *         TR           MNT           LL_RTC_TIME_Config\n
1254:Drivers/STM32L0xx_HAL_Driver/Inc/stm32l0xx_ll_rtc.h ****   *         TR           MNU           LL_RTC_TIME_Config\n
1255:Drivers/STM32L0xx_HAL_Driver/Inc/stm32l0xx_ll_rtc.h ****   *         TR           ST            LL_RTC_TIME_Config\n
1256:Drivers/STM32L0xx_HAL_Driver/Inc/stm32l0xx_ll_rtc.h ****   *         TR           SU            LL_RTC_TIME_Config
1257:Drivers/STM32L0xx_HAL_Driver/Inc/stm32l0xx_ll_rtc.h ****   * @param  RTCx RTC Instance
1258:Drivers/STM32L0xx_HAL_Driver/Inc/stm32l0xx_ll_rtc.h ****   * @param  Format12_24 This parameter can be one of the following values:
1259:Drivers/STM32L0xx_HAL_Driver/Inc/stm32l0xx_ll_rtc.h ****   *         @arg @ref LL_RTC_TIME_FORMAT_AM_OR_24
1260:Drivers/STM32L0xx_HAL_Driver/Inc/stm32l0xx_ll_rtc.h ****   *         @arg @ref LL_RTC_TIME_FORMAT_PM
1261:Drivers/STM32L0xx_HAL_Driver/Inc/stm32l0xx_ll_rtc.h ****   * @param  Hours Value between Min_Data=0x01 and Max_Data=0x12 or between Min_Data=0x00 and Max_Da
1262:Drivers/STM32L0xx_HAL_Driver/Inc/stm32l0xx_ll_rtc.h ****   * @param  Minutes Value between Min_Data=0x00 and Max_Data=0x59
1263:Drivers/STM32L0xx_HAL_Driver/Inc/stm32l0xx_ll_rtc.h ****   * @param  Seconds Value between Min_Data=0x00 and Max_Data=0x59
1264:Drivers/STM32L0xx_HAL_Driver/Inc/stm32l0xx_ll_rtc.h ****   * @retval None
1265:Drivers/STM32L0xx_HAL_Driver/Inc/stm32l0xx_ll_rtc.h ****   */
1266:Drivers/STM32L0xx_HAL_Driver/Inc/stm32l0xx_ll_rtc.h **** __STATIC_INLINE void LL_RTC_TIME_Config(RTC_TypeDef *RTCx, uint32_t Format12_24, uint32_t Hours, ui
1267:Drivers/STM32L0xx_HAL_Driver/Inc/stm32l0xx_ll_rtc.h **** {
1268:Drivers/STM32L0xx_HAL_Driver/Inc/stm32l0xx_ll_rtc.h ****   register uint32_t temp = 0U;
1269:Drivers/STM32L0xx_HAL_Driver/Inc/stm32l0xx_ll_rtc.h **** 
1270:Drivers/STM32L0xx_HAL_Driver/Inc/stm32l0xx_ll_rtc.h ****   temp = Format12_24                                                                               
1271:Drivers/STM32L0xx_HAL_Driver/Inc/stm32l0xx_ll_rtc.h ****          (((Hours & 0xF0U) << (RTC_POSITION_TR_HT - 4U)) | ((Hours & 0x0FU) << RTC_POSITION_TR_HU))
1272:Drivers/STM32L0xx_HAL_Driver/Inc/stm32l0xx_ll_rtc.h ****          (((Minutes & 0xF0U) << (RTC_POSITION_TR_MT - 4U)) | ((Minutes & 0x0FU) << RTC_POSITION_TR_
1273:Drivers/STM32L0xx_HAL_Driver/Inc/stm32l0xx_ll_rtc.h ****          (((Seconds & 0xF0U) << (RTC_POSITION_TR_ST - 4U)) | ((Seconds & 0x0FU) << RTC_POSITION_TR_
1274:Drivers/STM32L0xx_HAL_Driver/Inc/stm32l0xx_ll_rtc.h ****   MODIFY_REG(RTCx->TR, (RTC_TR_PM | RTC_TR_HT | RTC_TR_HU | RTC_TR_MNT | RTC_TR_MNU | RTC_TR_ST | R
1275:Drivers/STM32L0xx_HAL_Driver/Inc/stm32l0xx_ll_rtc.h **** }
ARM GAS  /tmp/ccnIlCuV.s 			page 36


1276:Drivers/STM32L0xx_HAL_Driver/Inc/stm32l0xx_ll_rtc.h **** 
1277:Drivers/STM32L0xx_HAL_Driver/Inc/stm32l0xx_ll_rtc.h **** /**
1278:Drivers/STM32L0xx_HAL_Driver/Inc/stm32l0xx_ll_rtc.h ****   * @brief  Get time (hour, minute and second) in BCD format
1279:Drivers/STM32L0xx_HAL_Driver/Inc/stm32l0xx_ll_rtc.h ****   * @note if shadow mode is disabled (BYPSHAD=0), need to check if RSF flag is set
1280:Drivers/STM32L0xx_HAL_Driver/Inc/stm32l0xx_ll_rtc.h ****   *       before reading this bit
1281:Drivers/STM32L0xx_HAL_Driver/Inc/stm32l0xx_ll_rtc.h ****   * @note Read either RTC_SSR or RTC_TR locks the values in the higher-order calendar
1282:Drivers/STM32L0xx_HAL_Driver/Inc/stm32l0xx_ll_rtc.h ****   *       shadow registers until RTC_DR is read (LL_RTC_ReadReg(RTC, DR)).
1283:Drivers/STM32L0xx_HAL_Driver/Inc/stm32l0xx_ll_rtc.h ****   * @note helper macros __LL_RTC_GET_HOUR, __LL_RTC_GET_MINUTE and __LL_RTC_GET_SECOND
1284:Drivers/STM32L0xx_HAL_Driver/Inc/stm32l0xx_ll_rtc.h ****   *       are available to get independently each parameter.
1285:Drivers/STM32L0xx_HAL_Driver/Inc/stm32l0xx_ll_rtc.h ****   * @rmtoll TR           HT            LL_RTC_TIME_Get\n
1286:Drivers/STM32L0xx_HAL_Driver/Inc/stm32l0xx_ll_rtc.h ****   *         TR           HU            LL_RTC_TIME_Get\n
1287:Drivers/STM32L0xx_HAL_Driver/Inc/stm32l0xx_ll_rtc.h ****   *         TR           MNT           LL_RTC_TIME_Get\n
1288:Drivers/STM32L0xx_HAL_Driver/Inc/stm32l0xx_ll_rtc.h ****   *         TR           MNU           LL_RTC_TIME_Get\n
1289:Drivers/STM32L0xx_HAL_Driver/Inc/stm32l0xx_ll_rtc.h ****   *         TR           ST            LL_RTC_TIME_Get\n
1290:Drivers/STM32L0xx_HAL_Driver/Inc/stm32l0xx_ll_rtc.h ****   *         TR           SU            LL_RTC_TIME_Get
1291:Drivers/STM32L0xx_HAL_Driver/Inc/stm32l0xx_ll_rtc.h ****   * @param  RTCx RTC Instance
1292:Drivers/STM32L0xx_HAL_Driver/Inc/stm32l0xx_ll_rtc.h ****   * @retval Combination of hours, minutes and seconds (Format: 0x00HHMMSS).
1293:Drivers/STM32L0xx_HAL_Driver/Inc/stm32l0xx_ll_rtc.h ****   */
1294:Drivers/STM32L0xx_HAL_Driver/Inc/stm32l0xx_ll_rtc.h **** __STATIC_INLINE uint32_t LL_RTC_TIME_Get(RTC_TypeDef *RTCx)
1295:Drivers/STM32L0xx_HAL_Driver/Inc/stm32l0xx_ll_rtc.h **** {
1296:Drivers/STM32L0xx_HAL_Driver/Inc/stm32l0xx_ll_rtc.h ****   return (uint32_t)((LL_RTC_TIME_GetHour(RTCx) << RTC_OFFSET_HOUR) | (LL_RTC_TIME_GetMinute(RTCx) <
1297:Drivers/STM32L0xx_HAL_Driver/Inc/stm32l0xx_ll_rtc.h **** }
1298:Drivers/STM32L0xx_HAL_Driver/Inc/stm32l0xx_ll_rtc.h **** 
1299:Drivers/STM32L0xx_HAL_Driver/Inc/stm32l0xx_ll_rtc.h **** /**
1300:Drivers/STM32L0xx_HAL_Driver/Inc/stm32l0xx_ll_rtc.h ****   * @brief  Memorize whether the daylight saving time change has been performed
1301:Drivers/STM32L0xx_HAL_Driver/Inc/stm32l0xx_ll_rtc.h ****   * @note   Bit is write-protected. @ref LL_RTC_DisableWriteProtection function should be called be
1302:Drivers/STM32L0xx_HAL_Driver/Inc/stm32l0xx_ll_rtc.h ****   * @rmtoll CR           BCK           LL_RTC_TIME_EnableDayLightStore
1303:Drivers/STM32L0xx_HAL_Driver/Inc/stm32l0xx_ll_rtc.h ****   * @param  RTCx RTC Instance
1304:Drivers/STM32L0xx_HAL_Driver/Inc/stm32l0xx_ll_rtc.h ****   * @retval None
1305:Drivers/STM32L0xx_HAL_Driver/Inc/stm32l0xx_ll_rtc.h ****   */
1306:Drivers/STM32L0xx_HAL_Driver/Inc/stm32l0xx_ll_rtc.h **** __STATIC_INLINE void LL_RTC_TIME_EnableDayLightStore(RTC_TypeDef *RTCx)
1307:Drivers/STM32L0xx_HAL_Driver/Inc/stm32l0xx_ll_rtc.h **** {
1308:Drivers/STM32L0xx_HAL_Driver/Inc/stm32l0xx_ll_rtc.h ****   SET_BIT(RTCx->CR, RTC_CR_BCK);
1309:Drivers/STM32L0xx_HAL_Driver/Inc/stm32l0xx_ll_rtc.h **** }
1310:Drivers/STM32L0xx_HAL_Driver/Inc/stm32l0xx_ll_rtc.h **** 
1311:Drivers/STM32L0xx_HAL_Driver/Inc/stm32l0xx_ll_rtc.h **** /**
1312:Drivers/STM32L0xx_HAL_Driver/Inc/stm32l0xx_ll_rtc.h ****   * @brief  Disable memorization whether the daylight saving time change has been performed.
1313:Drivers/STM32L0xx_HAL_Driver/Inc/stm32l0xx_ll_rtc.h ****   * @note   Bit is write-protected. @ref LL_RTC_DisableWriteProtection function should be called be
1314:Drivers/STM32L0xx_HAL_Driver/Inc/stm32l0xx_ll_rtc.h ****   * @rmtoll CR           BCK           LL_RTC_TIME_DisableDayLightStore
1315:Drivers/STM32L0xx_HAL_Driver/Inc/stm32l0xx_ll_rtc.h ****   * @param  RTCx RTC Instance
1316:Drivers/STM32L0xx_HAL_Driver/Inc/stm32l0xx_ll_rtc.h ****   * @retval None
1317:Drivers/STM32L0xx_HAL_Driver/Inc/stm32l0xx_ll_rtc.h ****   */
1318:Drivers/STM32L0xx_HAL_Driver/Inc/stm32l0xx_ll_rtc.h **** __STATIC_INLINE void LL_RTC_TIME_DisableDayLightStore(RTC_TypeDef *RTCx)
1319:Drivers/STM32L0xx_HAL_Driver/Inc/stm32l0xx_ll_rtc.h **** {
1320:Drivers/STM32L0xx_HAL_Driver/Inc/stm32l0xx_ll_rtc.h ****   CLEAR_BIT(RTCx->CR, RTC_CR_BCK);
1321:Drivers/STM32L0xx_HAL_Driver/Inc/stm32l0xx_ll_rtc.h **** }
1322:Drivers/STM32L0xx_HAL_Driver/Inc/stm32l0xx_ll_rtc.h **** 
1323:Drivers/STM32L0xx_HAL_Driver/Inc/stm32l0xx_ll_rtc.h **** /**
1324:Drivers/STM32L0xx_HAL_Driver/Inc/stm32l0xx_ll_rtc.h ****   * @brief  Check if RTC Day Light Saving stored operation has been enabled or not
1325:Drivers/STM32L0xx_HAL_Driver/Inc/stm32l0xx_ll_rtc.h ****   * @rmtoll CR           BCK           LL_RTC_TIME_IsDayLightStoreEnabled
1326:Drivers/STM32L0xx_HAL_Driver/Inc/stm32l0xx_ll_rtc.h ****   * @param  RTCx RTC Instance
1327:Drivers/STM32L0xx_HAL_Driver/Inc/stm32l0xx_ll_rtc.h ****   * @retval State of bit (1 or 0).
1328:Drivers/STM32L0xx_HAL_Driver/Inc/stm32l0xx_ll_rtc.h ****   */
1329:Drivers/STM32L0xx_HAL_Driver/Inc/stm32l0xx_ll_rtc.h **** __STATIC_INLINE uint32_t LL_RTC_TIME_IsDayLightStoreEnabled(RTC_TypeDef *RTCx)
1330:Drivers/STM32L0xx_HAL_Driver/Inc/stm32l0xx_ll_rtc.h **** {
1331:Drivers/STM32L0xx_HAL_Driver/Inc/stm32l0xx_ll_rtc.h ****   return (READ_BIT(RTCx->CR, RTC_CR_BCK) == (RTC_CR_BCK));
1332:Drivers/STM32L0xx_HAL_Driver/Inc/stm32l0xx_ll_rtc.h **** }
ARM GAS  /tmp/ccnIlCuV.s 			page 37


1333:Drivers/STM32L0xx_HAL_Driver/Inc/stm32l0xx_ll_rtc.h **** 
1334:Drivers/STM32L0xx_HAL_Driver/Inc/stm32l0xx_ll_rtc.h **** /**
1335:Drivers/STM32L0xx_HAL_Driver/Inc/stm32l0xx_ll_rtc.h ****   * @brief  Subtract 1 hour (winter time change)
1336:Drivers/STM32L0xx_HAL_Driver/Inc/stm32l0xx_ll_rtc.h ****   * @note   Bit is write-protected. @ref LL_RTC_DisableWriteProtection function should be called be
1337:Drivers/STM32L0xx_HAL_Driver/Inc/stm32l0xx_ll_rtc.h ****   * @rmtoll CR           SUB1H         LL_RTC_TIME_DecHour
1338:Drivers/STM32L0xx_HAL_Driver/Inc/stm32l0xx_ll_rtc.h ****   * @param  RTCx RTC Instance
1339:Drivers/STM32L0xx_HAL_Driver/Inc/stm32l0xx_ll_rtc.h ****   * @retval None
1340:Drivers/STM32L0xx_HAL_Driver/Inc/stm32l0xx_ll_rtc.h ****   */
1341:Drivers/STM32L0xx_HAL_Driver/Inc/stm32l0xx_ll_rtc.h **** __STATIC_INLINE void LL_RTC_TIME_DecHour(RTC_TypeDef *RTCx)
1342:Drivers/STM32L0xx_HAL_Driver/Inc/stm32l0xx_ll_rtc.h **** {
1343:Drivers/STM32L0xx_HAL_Driver/Inc/stm32l0xx_ll_rtc.h ****   SET_BIT(RTCx->CR, RTC_CR_SUB1H);
1344:Drivers/STM32L0xx_HAL_Driver/Inc/stm32l0xx_ll_rtc.h **** }
1345:Drivers/STM32L0xx_HAL_Driver/Inc/stm32l0xx_ll_rtc.h **** 
1346:Drivers/STM32L0xx_HAL_Driver/Inc/stm32l0xx_ll_rtc.h **** /**
1347:Drivers/STM32L0xx_HAL_Driver/Inc/stm32l0xx_ll_rtc.h ****   * @brief  Add 1 hour (summer time change)
1348:Drivers/STM32L0xx_HAL_Driver/Inc/stm32l0xx_ll_rtc.h ****   * @note   Bit is write-protected. @ref LL_RTC_DisableWriteProtection function should be called be
1349:Drivers/STM32L0xx_HAL_Driver/Inc/stm32l0xx_ll_rtc.h ****   * @rmtoll CR           ADD1H         LL_RTC_TIME_IncHour
1350:Drivers/STM32L0xx_HAL_Driver/Inc/stm32l0xx_ll_rtc.h ****   * @param  RTCx RTC Instance
1351:Drivers/STM32L0xx_HAL_Driver/Inc/stm32l0xx_ll_rtc.h ****   * @retval None
1352:Drivers/STM32L0xx_HAL_Driver/Inc/stm32l0xx_ll_rtc.h ****   */
1353:Drivers/STM32L0xx_HAL_Driver/Inc/stm32l0xx_ll_rtc.h **** __STATIC_INLINE void LL_RTC_TIME_IncHour(RTC_TypeDef *RTCx)
1354:Drivers/STM32L0xx_HAL_Driver/Inc/stm32l0xx_ll_rtc.h **** {
1355:Drivers/STM32L0xx_HAL_Driver/Inc/stm32l0xx_ll_rtc.h ****   SET_BIT(RTCx->CR, RTC_CR_ADD1H);
1356:Drivers/STM32L0xx_HAL_Driver/Inc/stm32l0xx_ll_rtc.h **** }
1357:Drivers/STM32L0xx_HAL_Driver/Inc/stm32l0xx_ll_rtc.h **** 
1358:Drivers/STM32L0xx_HAL_Driver/Inc/stm32l0xx_ll_rtc.h **** /**
1359:Drivers/STM32L0xx_HAL_Driver/Inc/stm32l0xx_ll_rtc.h ****   * @brief  Get Sub second value in the synchronous prescaler counter.
1360:Drivers/STM32L0xx_HAL_Driver/Inc/stm32l0xx_ll_rtc.h ****   * @note  You can use both SubSeconds value and SecondFraction (PREDIV_S through
1361:Drivers/STM32L0xx_HAL_Driver/Inc/stm32l0xx_ll_rtc.h ****   *        LL_RTC_GetSynchPrescaler function) terms returned to convert Calendar
1362:Drivers/STM32L0xx_HAL_Driver/Inc/stm32l0xx_ll_rtc.h ****   *        SubSeconds value in second fraction ratio with time unit following
1363:Drivers/STM32L0xx_HAL_Driver/Inc/stm32l0xx_ll_rtc.h ****   *        generic formula:
1364:Drivers/STM32L0xx_HAL_Driver/Inc/stm32l0xx_ll_rtc.h ****   *          ==> Seconds fraction ratio * time_unit= [(SecondFraction-SubSeconds)/(SecondFraction+1
1365:Drivers/STM32L0xx_HAL_Driver/Inc/stm32l0xx_ll_rtc.h ****   *        This conversion can be performed only if no shift operation is pending
1366:Drivers/STM32L0xx_HAL_Driver/Inc/stm32l0xx_ll_rtc.h ****   *        (ie. SHFP=0) when PREDIV_S >= SS.
1367:Drivers/STM32L0xx_HAL_Driver/Inc/stm32l0xx_ll_rtc.h ****   * @rmtoll SSR          SS            LL_RTC_TIME_GetSubSecond
1368:Drivers/STM32L0xx_HAL_Driver/Inc/stm32l0xx_ll_rtc.h ****   * @param  RTCx RTC Instance
1369:Drivers/STM32L0xx_HAL_Driver/Inc/stm32l0xx_ll_rtc.h ****   * @retval Sub second value (number between 0 and 65535)
1370:Drivers/STM32L0xx_HAL_Driver/Inc/stm32l0xx_ll_rtc.h ****   */
1371:Drivers/STM32L0xx_HAL_Driver/Inc/stm32l0xx_ll_rtc.h **** __STATIC_INLINE uint32_t LL_RTC_TIME_GetSubSecond(RTC_TypeDef *RTCx)
1372:Drivers/STM32L0xx_HAL_Driver/Inc/stm32l0xx_ll_rtc.h **** {
1373:Drivers/STM32L0xx_HAL_Driver/Inc/stm32l0xx_ll_rtc.h ****   return (uint32_t)(READ_BIT(RTCx->SSR, RTC_SSR_SS));
1374:Drivers/STM32L0xx_HAL_Driver/Inc/stm32l0xx_ll_rtc.h **** }
1375:Drivers/STM32L0xx_HAL_Driver/Inc/stm32l0xx_ll_rtc.h **** 
1376:Drivers/STM32L0xx_HAL_Driver/Inc/stm32l0xx_ll_rtc.h **** /**
1377:Drivers/STM32L0xx_HAL_Driver/Inc/stm32l0xx_ll_rtc.h ****   * @brief  Synchronize to a remote clock with a high degree of precision.
1378:Drivers/STM32L0xx_HAL_Driver/Inc/stm32l0xx_ll_rtc.h ****   * @note   This operation effectively subtracts from (delays) or advance the clock of a fraction o
1379:Drivers/STM32L0xx_HAL_Driver/Inc/stm32l0xx_ll_rtc.h ****   * @note   Bit is write-protected. @ref LL_RTC_DisableWriteProtection function should be called be
1380:Drivers/STM32L0xx_HAL_Driver/Inc/stm32l0xx_ll_rtc.h ****   * @note   When REFCKON is set, firmware must not write to Shift control register.
1381:Drivers/STM32L0xx_HAL_Driver/Inc/stm32l0xx_ll_rtc.h ****   * @rmtoll SHIFTR       ADD1S         LL_RTC_TIME_Synchronize\n
1382:Drivers/STM32L0xx_HAL_Driver/Inc/stm32l0xx_ll_rtc.h ****   *         SHIFTR       SUBFS         LL_RTC_TIME_Synchronize
1383:Drivers/STM32L0xx_HAL_Driver/Inc/stm32l0xx_ll_rtc.h ****   * @param  RTCx RTC Instance
1384:Drivers/STM32L0xx_HAL_Driver/Inc/stm32l0xx_ll_rtc.h ****   * @param  ShiftSecond This parameter can be one of the following values:
1385:Drivers/STM32L0xx_HAL_Driver/Inc/stm32l0xx_ll_rtc.h ****   *         @arg @ref LL_RTC_SHIFT_SECOND_DELAY
1386:Drivers/STM32L0xx_HAL_Driver/Inc/stm32l0xx_ll_rtc.h ****   *         @arg @ref LL_RTC_SHIFT_SECOND_ADVANCE
1387:Drivers/STM32L0xx_HAL_Driver/Inc/stm32l0xx_ll_rtc.h ****   * @param  Fraction Number of Seconds Fractions (any value from 0 to 0x7FFF)
1388:Drivers/STM32L0xx_HAL_Driver/Inc/stm32l0xx_ll_rtc.h ****   * @retval None
1389:Drivers/STM32L0xx_HAL_Driver/Inc/stm32l0xx_ll_rtc.h ****   */
ARM GAS  /tmp/ccnIlCuV.s 			page 38


1390:Drivers/STM32L0xx_HAL_Driver/Inc/stm32l0xx_ll_rtc.h **** __STATIC_INLINE void LL_RTC_TIME_Synchronize(RTC_TypeDef *RTCx, uint32_t ShiftSecond, uint32_t Frac
1391:Drivers/STM32L0xx_HAL_Driver/Inc/stm32l0xx_ll_rtc.h **** {
1392:Drivers/STM32L0xx_HAL_Driver/Inc/stm32l0xx_ll_rtc.h ****   WRITE_REG(RTCx->SHIFTR, ShiftSecond | Fraction);
1393:Drivers/STM32L0xx_HAL_Driver/Inc/stm32l0xx_ll_rtc.h **** }
1394:Drivers/STM32L0xx_HAL_Driver/Inc/stm32l0xx_ll_rtc.h **** 
1395:Drivers/STM32L0xx_HAL_Driver/Inc/stm32l0xx_ll_rtc.h **** /**
1396:Drivers/STM32L0xx_HAL_Driver/Inc/stm32l0xx_ll_rtc.h ****   * @}
1397:Drivers/STM32L0xx_HAL_Driver/Inc/stm32l0xx_ll_rtc.h ****   */
1398:Drivers/STM32L0xx_HAL_Driver/Inc/stm32l0xx_ll_rtc.h **** 
1399:Drivers/STM32L0xx_HAL_Driver/Inc/stm32l0xx_ll_rtc.h **** /** @defgroup RTC_LL_EF_Date Date
1400:Drivers/STM32L0xx_HAL_Driver/Inc/stm32l0xx_ll_rtc.h ****   * @{
1401:Drivers/STM32L0xx_HAL_Driver/Inc/stm32l0xx_ll_rtc.h ****   */
1402:Drivers/STM32L0xx_HAL_Driver/Inc/stm32l0xx_ll_rtc.h **** 
1403:Drivers/STM32L0xx_HAL_Driver/Inc/stm32l0xx_ll_rtc.h **** /**
1404:Drivers/STM32L0xx_HAL_Driver/Inc/stm32l0xx_ll_rtc.h ****   * @brief  Set Year in BCD format
1405:Drivers/STM32L0xx_HAL_Driver/Inc/stm32l0xx_ll_rtc.h ****   * @note helper macro __LL_RTC_CONVERT_BIN2BCD is available to convert Year from binary to BCD for
1406:Drivers/STM32L0xx_HAL_Driver/Inc/stm32l0xx_ll_rtc.h ****   * @rmtoll DR           YT            LL_RTC_DATE_SetYear\n
1407:Drivers/STM32L0xx_HAL_Driver/Inc/stm32l0xx_ll_rtc.h ****   *         DR           YU            LL_RTC_DATE_SetYear
1408:Drivers/STM32L0xx_HAL_Driver/Inc/stm32l0xx_ll_rtc.h ****   * @param  RTCx RTC Instance
1409:Drivers/STM32L0xx_HAL_Driver/Inc/stm32l0xx_ll_rtc.h ****   * @param  Year Value between Min_Data=0x00 and Max_Data=0x99
1410:Drivers/STM32L0xx_HAL_Driver/Inc/stm32l0xx_ll_rtc.h ****   * @retval None
1411:Drivers/STM32L0xx_HAL_Driver/Inc/stm32l0xx_ll_rtc.h ****   */
1412:Drivers/STM32L0xx_HAL_Driver/Inc/stm32l0xx_ll_rtc.h **** __STATIC_INLINE void LL_RTC_DATE_SetYear(RTC_TypeDef *RTCx, uint32_t Year)
1413:Drivers/STM32L0xx_HAL_Driver/Inc/stm32l0xx_ll_rtc.h **** {
1414:Drivers/STM32L0xx_HAL_Driver/Inc/stm32l0xx_ll_rtc.h ****   MODIFY_REG(RTCx->DR, (RTC_DR_YT | RTC_DR_YU),
1415:Drivers/STM32L0xx_HAL_Driver/Inc/stm32l0xx_ll_rtc.h ****              (((Year & 0xF0U) << (RTC_POSITION_DR_YT - 4U)) | ((Year & 0x0FU) << RTC_POSITION_DR_YU
1416:Drivers/STM32L0xx_HAL_Driver/Inc/stm32l0xx_ll_rtc.h **** }
1417:Drivers/STM32L0xx_HAL_Driver/Inc/stm32l0xx_ll_rtc.h **** 
1418:Drivers/STM32L0xx_HAL_Driver/Inc/stm32l0xx_ll_rtc.h **** /**
1419:Drivers/STM32L0xx_HAL_Driver/Inc/stm32l0xx_ll_rtc.h ****   * @brief  Get Year in BCD format
1420:Drivers/STM32L0xx_HAL_Driver/Inc/stm32l0xx_ll_rtc.h ****   * @note if shadow mode is disabled (BYPSHAD=0), need to check if RSF flag is set
1421:Drivers/STM32L0xx_HAL_Driver/Inc/stm32l0xx_ll_rtc.h ****   *       before reading this bit
1422:Drivers/STM32L0xx_HAL_Driver/Inc/stm32l0xx_ll_rtc.h ****   * @note helper macro __LL_RTC_CONVERT_BCD2BIN is available to convert Year from BCD to Binary for
1423:Drivers/STM32L0xx_HAL_Driver/Inc/stm32l0xx_ll_rtc.h ****   * @rmtoll DR           YT            LL_RTC_DATE_GetYear\n
1424:Drivers/STM32L0xx_HAL_Driver/Inc/stm32l0xx_ll_rtc.h ****   *         DR           YU            LL_RTC_DATE_GetYear
1425:Drivers/STM32L0xx_HAL_Driver/Inc/stm32l0xx_ll_rtc.h ****   * @param  RTCx RTC Instance
1426:Drivers/STM32L0xx_HAL_Driver/Inc/stm32l0xx_ll_rtc.h ****   * @retval Value between Min_Data=0x00 and Max_Data=0x99
1427:Drivers/STM32L0xx_HAL_Driver/Inc/stm32l0xx_ll_rtc.h ****   */
1428:Drivers/STM32L0xx_HAL_Driver/Inc/stm32l0xx_ll_rtc.h **** __STATIC_INLINE uint32_t LL_RTC_DATE_GetYear(RTC_TypeDef *RTCx)
1429:Drivers/STM32L0xx_HAL_Driver/Inc/stm32l0xx_ll_rtc.h **** {
1430:Drivers/STM32L0xx_HAL_Driver/Inc/stm32l0xx_ll_rtc.h ****   register uint32_t temp = 0U;
1431:Drivers/STM32L0xx_HAL_Driver/Inc/stm32l0xx_ll_rtc.h **** 
1432:Drivers/STM32L0xx_HAL_Driver/Inc/stm32l0xx_ll_rtc.h ****   temp = READ_BIT(RTCx->DR, (RTC_DR_YT | RTC_DR_YU));
1433:Drivers/STM32L0xx_HAL_Driver/Inc/stm32l0xx_ll_rtc.h ****   return (uint32_t)((((temp & RTC_DR_YT) >> RTC_POSITION_DR_YT) << 4U) | ((temp & RTC_DR_YU) >> RTC
1434:Drivers/STM32L0xx_HAL_Driver/Inc/stm32l0xx_ll_rtc.h **** }
1435:Drivers/STM32L0xx_HAL_Driver/Inc/stm32l0xx_ll_rtc.h **** 
1436:Drivers/STM32L0xx_HAL_Driver/Inc/stm32l0xx_ll_rtc.h **** /**
1437:Drivers/STM32L0xx_HAL_Driver/Inc/stm32l0xx_ll_rtc.h ****   * @brief  Set Week day
1438:Drivers/STM32L0xx_HAL_Driver/Inc/stm32l0xx_ll_rtc.h ****   * @rmtoll DR           WDU           LL_RTC_DATE_SetWeekDay
1439:Drivers/STM32L0xx_HAL_Driver/Inc/stm32l0xx_ll_rtc.h ****   * @param  RTCx RTC Instance
1440:Drivers/STM32L0xx_HAL_Driver/Inc/stm32l0xx_ll_rtc.h ****   * @param  WeekDay This parameter can be one of the following values:
1441:Drivers/STM32L0xx_HAL_Driver/Inc/stm32l0xx_ll_rtc.h ****   *         @arg @ref LL_RTC_WEEKDAY_MONDAY
1442:Drivers/STM32L0xx_HAL_Driver/Inc/stm32l0xx_ll_rtc.h ****   *         @arg @ref LL_RTC_WEEKDAY_TUESDAY
1443:Drivers/STM32L0xx_HAL_Driver/Inc/stm32l0xx_ll_rtc.h ****   *         @arg @ref LL_RTC_WEEKDAY_WEDNESDAY
1444:Drivers/STM32L0xx_HAL_Driver/Inc/stm32l0xx_ll_rtc.h ****   *         @arg @ref LL_RTC_WEEKDAY_THURSDAY
1445:Drivers/STM32L0xx_HAL_Driver/Inc/stm32l0xx_ll_rtc.h ****   *         @arg @ref LL_RTC_WEEKDAY_FRIDAY
1446:Drivers/STM32L0xx_HAL_Driver/Inc/stm32l0xx_ll_rtc.h ****   *         @arg @ref LL_RTC_WEEKDAY_SATURDAY
ARM GAS  /tmp/ccnIlCuV.s 			page 39


1447:Drivers/STM32L0xx_HAL_Driver/Inc/stm32l0xx_ll_rtc.h ****   *         @arg @ref LL_RTC_WEEKDAY_SUNDAY
1448:Drivers/STM32L0xx_HAL_Driver/Inc/stm32l0xx_ll_rtc.h ****   * @retval None
1449:Drivers/STM32L0xx_HAL_Driver/Inc/stm32l0xx_ll_rtc.h ****   */
1450:Drivers/STM32L0xx_HAL_Driver/Inc/stm32l0xx_ll_rtc.h **** __STATIC_INLINE void LL_RTC_DATE_SetWeekDay(RTC_TypeDef *RTCx, uint32_t WeekDay)
1451:Drivers/STM32L0xx_HAL_Driver/Inc/stm32l0xx_ll_rtc.h **** {
1452:Drivers/STM32L0xx_HAL_Driver/Inc/stm32l0xx_ll_rtc.h ****   MODIFY_REG(RTCx->DR, RTC_DR_WDU, WeekDay << RTC_POSITION_DR_WDU);
1453:Drivers/STM32L0xx_HAL_Driver/Inc/stm32l0xx_ll_rtc.h **** }
1454:Drivers/STM32L0xx_HAL_Driver/Inc/stm32l0xx_ll_rtc.h **** 
1455:Drivers/STM32L0xx_HAL_Driver/Inc/stm32l0xx_ll_rtc.h **** /**
1456:Drivers/STM32L0xx_HAL_Driver/Inc/stm32l0xx_ll_rtc.h ****   * @brief  Get Week day
1457:Drivers/STM32L0xx_HAL_Driver/Inc/stm32l0xx_ll_rtc.h ****   * @note if shadow mode is disabled (BYPSHAD=0), need to check if RSF flag is set
1458:Drivers/STM32L0xx_HAL_Driver/Inc/stm32l0xx_ll_rtc.h ****   *       before reading this bit
1459:Drivers/STM32L0xx_HAL_Driver/Inc/stm32l0xx_ll_rtc.h ****   * @rmtoll DR           WDU           LL_RTC_DATE_GetWeekDay
1460:Drivers/STM32L0xx_HAL_Driver/Inc/stm32l0xx_ll_rtc.h ****   * @param  RTCx RTC Instance
1461:Drivers/STM32L0xx_HAL_Driver/Inc/stm32l0xx_ll_rtc.h ****   * @retval Returned value can be one of the following values:
1462:Drivers/STM32L0xx_HAL_Driver/Inc/stm32l0xx_ll_rtc.h ****   *         @arg @ref LL_RTC_WEEKDAY_MONDAY
1463:Drivers/STM32L0xx_HAL_Driver/Inc/stm32l0xx_ll_rtc.h ****   *         @arg @ref LL_RTC_WEEKDAY_TUESDAY
1464:Drivers/STM32L0xx_HAL_Driver/Inc/stm32l0xx_ll_rtc.h ****   *         @arg @ref LL_RTC_WEEKDAY_WEDNESDAY
1465:Drivers/STM32L0xx_HAL_Driver/Inc/stm32l0xx_ll_rtc.h ****   *         @arg @ref LL_RTC_WEEKDAY_THURSDAY
1466:Drivers/STM32L0xx_HAL_Driver/Inc/stm32l0xx_ll_rtc.h ****   *         @arg @ref LL_RTC_WEEKDAY_FRIDAY
1467:Drivers/STM32L0xx_HAL_Driver/Inc/stm32l0xx_ll_rtc.h ****   *         @arg @ref LL_RTC_WEEKDAY_SATURDAY
1468:Drivers/STM32L0xx_HAL_Driver/Inc/stm32l0xx_ll_rtc.h ****   *         @arg @ref LL_RTC_WEEKDAY_SUNDAY
1469:Drivers/STM32L0xx_HAL_Driver/Inc/stm32l0xx_ll_rtc.h ****   */
1470:Drivers/STM32L0xx_HAL_Driver/Inc/stm32l0xx_ll_rtc.h **** __STATIC_INLINE uint32_t LL_RTC_DATE_GetWeekDay(RTC_TypeDef *RTCx)
1471:Drivers/STM32L0xx_HAL_Driver/Inc/stm32l0xx_ll_rtc.h **** {
1472:Drivers/STM32L0xx_HAL_Driver/Inc/stm32l0xx_ll_rtc.h ****   return (uint32_t)(READ_BIT(RTCx->DR, RTC_DR_WDU) >> RTC_POSITION_DR_WDU);
1473:Drivers/STM32L0xx_HAL_Driver/Inc/stm32l0xx_ll_rtc.h **** }
1474:Drivers/STM32L0xx_HAL_Driver/Inc/stm32l0xx_ll_rtc.h **** 
1475:Drivers/STM32L0xx_HAL_Driver/Inc/stm32l0xx_ll_rtc.h **** /**
1476:Drivers/STM32L0xx_HAL_Driver/Inc/stm32l0xx_ll_rtc.h ****   * @brief  Set Month in BCD format
1477:Drivers/STM32L0xx_HAL_Driver/Inc/stm32l0xx_ll_rtc.h ****   * @note helper macro __LL_RTC_CONVERT_BIN2BCD is available to convert Month from binary to BCD fo
1478:Drivers/STM32L0xx_HAL_Driver/Inc/stm32l0xx_ll_rtc.h ****   * @rmtoll DR           MT            LL_RTC_DATE_SetMonth\n
1479:Drivers/STM32L0xx_HAL_Driver/Inc/stm32l0xx_ll_rtc.h ****   *         DR           MU            LL_RTC_DATE_SetMonth
1480:Drivers/STM32L0xx_HAL_Driver/Inc/stm32l0xx_ll_rtc.h ****   * @param  RTCx RTC Instance
1481:Drivers/STM32L0xx_HAL_Driver/Inc/stm32l0xx_ll_rtc.h ****   * @param  Month This parameter can be one of the following values:
1482:Drivers/STM32L0xx_HAL_Driver/Inc/stm32l0xx_ll_rtc.h ****   *         @arg @ref LL_RTC_MONTH_JANUARY
1483:Drivers/STM32L0xx_HAL_Driver/Inc/stm32l0xx_ll_rtc.h ****   *         @arg @ref LL_RTC_MONTH_FEBRUARY
1484:Drivers/STM32L0xx_HAL_Driver/Inc/stm32l0xx_ll_rtc.h ****   *         @arg @ref LL_RTC_MONTH_MARCH
1485:Drivers/STM32L0xx_HAL_Driver/Inc/stm32l0xx_ll_rtc.h ****   *         @arg @ref LL_RTC_MONTH_APRIL
1486:Drivers/STM32L0xx_HAL_Driver/Inc/stm32l0xx_ll_rtc.h ****   *         @arg @ref LL_RTC_MONTH_MAY
1487:Drivers/STM32L0xx_HAL_Driver/Inc/stm32l0xx_ll_rtc.h ****   *         @arg @ref LL_RTC_MONTH_JUNE
1488:Drivers/STM32L0xx_HAL_Driver/Inc/stm32l0xx_ll_rtc.h ****   *         @arg @ref LL_RTC_MONTH_JULY
1489:Drivers/STM32L0xx_HAL_Driver/Inc/stm32l0xx_ll_rtc.h ****   *         @arg @ref LL_RTC_MONTH_AUGUST
1490:Drivers/STM32L0xx_HAL_Driver/Inc/stm32l0xx_ll_rtc.h ****   *         @arg @ref LL_RTC_MONTH_SEPTEMBER
1491:Drivers/STM32L0xx_HAL_Driver/Inc/stm32l0xx_ll_rtc.h ****   *         @arg @ref LL_RTC_MONTH_OCTOBER
1492:Drivers/STM32L0xx_HAL_Driver/Inc/stm32l0xx_ll_rtc.h ****   *         @arg @ref LL_RTC_MONTH_NOVEMBER
1493:Drivers/STM32L0xx_HAL_Driver/Inc/stm32l0xx_ll_rtc.h ****   *         @arg @ref LL_RTC_MONTH_DECEMBER
1494:Drivers/STM32L0xx_HAL_Driver/Inc/stm32l0xx_ll_rtc.h ****   * @retval None
1495:Drivers/STM32L0xx_HAL_Driver/Inc/stm32l0xx_ll_rtc.h ****   */
1496:Drivers/STM32L0xx_HAL_Driver/Inc/stm32l0xx_ll_rtc.h **** __STATIC_INLINE void LL_RTC_DATE_SetMonth(RTC_TypeDef *RTCx, uint32_t Month)
1497:Drivers/STM32L0xx_HAL_Driver/Inc/stm32l0xx_ll_rtc.h **** {
1498:Drivers/STM32L0xx_HAL_Driver/Inc/stm32l0xx_ll_rtc.h ****   MODIFY_REG(RTCx->DR, (RTC_DR_MT | RTC_DR_MU),
1499:Drivers/STM32L0xx_HAL_Driver/Inc/stm32l0xx_ll_rtc.h ****              (((Month & 0xF0U) << (RTC_POSITION_DR_MT - 4U)) | ((Month & 0x0FU) << RTC_POSITION_DR_
1500:Drivers/STM32L0xx_HAL_Driver/Inc/stm32l0xx_ll_rtc.h **** }
1501:Drivers/STM32L0xx_HAL_Driver/Inc/stm32l0xx_ll_rtc.h **** 
1502:Drivers/STM32L0xx_HAL_Driver/Inc/stm32l0xx_ll_rtc.h **** /**
1503:Drivers/STM32L0xx_HAL_Driver/Inc/stm32l0xx_ll_rtc.h ****   * @brief  Get Month in BCD format
ARM GAS  /tmp/ccnIlCuV.s 			page 40


1504:Drivers/STM32L0xx_HAL_Driver/Inc/stm32l0xx_ll_rtc.h ****   * @note if shadow mode is disabled (BYPSHAD=0), need to check if RSF flag is set
1505:Drivers/STM32L0xx_HAL_Driver/Inc/stm32l0xx_ll_rtc.h ****   *       before reading this bit
1506:Drivers/STM32L0xx_HAL_Driver/Inc/stm32l0xx_ll_rtc.h ****   * @note helper macro __LL_RTC_CONVERT_BCD2BIN is available to convert Month from BCD to Binary fo
1507:Drivers/STM32L0xx_HAL_Driver/Inc/stm32l0xx_ll_rtc.h ****   * @rmtoll DR           MT            LL_RTC_DATE_GetMonth\n
1508:Drivers/STM32L0xx_HAL_Driver/Inc/stm32l0xx_ll_rtc.h ****   *         DR           MU            LL_RTC_DATE_GetMonth
1509:Drivers/STM32L0xx_HAL_Driver/Inc/stm32l0xx_ll_rtc.h ****   * @param  RTCx RTC Instance
1510:Drivers/STM32L0xx_HAL_Driver/Inc/stm32l0xx_ll_rtc.h ****   * @retval Returned value can be one of the following values:
1511:Drivers/STM32L0xx_HAL_Driver/Inc/stm32l0xx_ll_rtc.h ****   *         @arg @ref LL_RTC_MONTH_JANUARY
1512:Drivers/STM32L0xx_HAL_Driver/Inc/stm32l0xx_ll_rtc.h ****   *         @arg @ref LL_RTC_MONTH_FEBRUARY
1513:Drivers/STM32L0xx_HAL_Driver/Inc/stm32l0xx_ll_rtc.h ****   *         @arg @ref LL_RTC_MONTH_MARCH
1514:Drivers/STM32L0xx_HAL_Driver/Inc/stm32l0xx_ll_rtc.h ****   *         @arg @ref LL_RTC_MONTH_APRIL
1515:Drivers/STM32L0xx_HAL_Driver/Inc/stm32l0xx_ll_rtc.h ****   *         @arg @ref LL_RTC_MONTH_MAY
1516:Drivers/STM32L0xx_HAL_Driver/Inc/stm32l0xx_ll_rtc.h ****   *         @arg @ref LL_RTC_MONTH_JUNE
1517:Drivers/STM32L0xx_HAL_Driver/Inc/stm32l0xx_ll_rtc.h ****   *         @arg @ref LL_RTC_MONTH_JULY
1518:Drivers/STM32L0xx_HAL_Driver/Inc/stm32l0xx_ll_rtc.h ****   *         @arg @ref LL_RTC_MONTH_AUGUST
1519:Drivers/STM32L0xx_HAL_Driver/Inc/stm32l0xx_ll_rtc.h ****   *         @arg @ref LL_RTC_MONTH_SEPTEMBER
1520:Drivers/STM32L0xx_HAL_Driver/Inc/stm32l0xx_ll_rtc.h ****   *         @arg @ref LL_RTC_MONTH_OCTOBER
1521:Drivers/STM32L0xx_HAL_Driver/Inc/stm32l0xx_ll_rtc.h ****   *         @arg @ref LL_RTC_MONTH_NOVEMBER
1522:Drivers/STM32L0xx_HAL_Driver/Inc/stm32l0xx_ll_rtc.h ****   *         @arg @ref LL_RTC_MONTH_DECEMBER
1523:Drivers/STM32L0xx_HAL_Driver/Inc/stm32l0xx_ll_rtc.h ****   */
1524:Drivers/STM32L0xx_HAL_Driver/Inc/stm32l0xx_ll_rtc.h **** __STATIC_INLINE uint32_t LL_RTC_DATE_GetMonth(RTC_TypeDef *RTCx)
1525:Drivers/STM32L0xx_HAL_Driver/Inc/stm32l0xx_ll_rtc.h **** {
1526:Drivers/STM32L0xx_HAL_Driver/Inc/stm32l0xx_ll_rtc.h ****   register uint32_t temp = 0U;
1527:Drivers/STM32L0xx_HAL_Driver/Inc/stm32l0xx_ll_rtc.h **** 
1528:Drivers/STM32L0xx_HAL_Driver/Inc/stm32l0xx_ll_rtc.h ****   temp = READ_BIT(RTCx->DR, (RTC_DR_MT | RTC_DR_MU));
1529:Drivers/STM32L0xx_HAL_Driver/Inc/stm32l0xx_ll_rtc.h ****   return (uint32_t)((((temp & RTC_DR_MT) >> RTC_POSITION_DR_MT) << 4U) | ((temp & RTC_DR_MU) >> RTC
1530:Drivers/STM32L0xx_HAL_Driver/Inc/stm32l0xx_ll_rtc.h **** }
1531:Drivers/STM32L0xx_HAL_Driver/Inc/stm32l0xx_ll_rtc.h **** 
1532:Drivers/STM32L0xx_HAL_Driver/Inc/stm32l0xx_ll_rtc.h **** /**
1533:Drivers/STM32L0xx_HAL_Driver/Inc/stm32l0xx_ll_rtc.h ****   * @brief  Set Day in BCD format
1534:Drivers/STM32L0xx_HAL_Driver/Inc/stm32l0xx_ll_rtc.h ****   * @note helper macro __LL_RTC_CONVERT_BIN2BCD is available to convert Day from binary to BCD form
1535:Drivers/STM32L0xx_HAL_Driver/Inc/stm32l0xx_ll_rtc.h ****   * @rmtoll DR           DT            LL_RTC_DATE_SetDay\n
1536:Drivers/STM32L0xx_HAL_Driver/Inc/stm32l0xx_ll_rtc.h ****   *         DR           DU            LL_RTC_DATE_SetDay
1537:Drivers/STM32L0xx_HAL_Driver/Inc/stm32l0xx_ll_rtc.h ****   * @param  RTCx RTC Instance
1538:Drivers/STM32L0xx_HAL_Driver/Inc/stm32l0xx_ll_rtc.h ****   * @param  Day Value between Min_Data=0x01 and Max_Data=0x31
1539:Drivers/STM32L0xx_HAL_Driver/Inc/stm32l0xx_ll_rtc.h ****   * @retval None
1540:Drivers/STM32L0xx_HAL_Driver/Inc/stm32l0xx_ll_rtc.h ****   */
1541:Drivers/STM32L0xx_HAL_Driver/Inc/stm32l0xx_ll_rtc.h **** __STATIC_INLINE void LL_RTC_DATE_SetDay(RTC_TypeDef *RTCx, uint32_t Day)
1542:Drivers/STM32L0xx_HAL_Driver/Inc/stm32l0xx_ll_rtc.h **** {
1543:Drivers/STM32L0xx_HAL_Driver/Inc/stm32l0xx_ll_rtc.h ****   MODIFY_REG(RTCx->DR, (RTC_DR_DT | RTC_DR_DU),
1544:Drivers/STM32L0xx_HAL_Driver/Inc/stm32l0xx_ll_rtc.h ****              (((Day & 0xF0U) << (RTC_POSITION_DR_DT - 4U)) | ((Day & 0x0FU) << RTC_POSITION_DR_DU))
1545:Drivers/STM32L0xx_HAL_Driver/Inc/stm32l0xx_ll_rtc.h **** }
1546:Drivers/STM32L0xx_HAL_Driver/Inc/stm32l0xx_ll_rtc.h **** 
1547:Drivers/STM32L0xx_HAL_Driver/Inc/stm32l0xx_ll_rtc.h **** /**
1548:Drivers/STM32L0xx_HAL_Driver/Inc/stm32l0xx_ll_rtc.h ****   * @brief  Get Day in BCD format
1549:Drivers/STM32L0xx_HAL_Driver/Inc/stm32l0xx_ll_rtc.h ****   * @note if shadow mode is disabled (BYPSHAD=0), need to check if RSF flag is set
1550:Drivers/STM32L0xx_HAL_Driver/Inc/stm32l0xx_ll_rtc.h ****   *       before reading this bit
1551:Drivers/STM32L0xx_HAL_Driver/Inc/stm32l0xx_ll_rtc.h ****   * @note helper macro __LL_RTC_CONVERT_BCD2BIN is available to convert Day from BCD to Binary form
1552:Drivers/STM32L0xx_HAL_Driver/Inc/stm32l0xx_ll_rtc.h ****   * @rmtoll DR           DT            LL_RTC_DATE_GetDay\n
1553:Drivers/STM32L0xx_HAL_Driver/Inc/stm32l0xx_ll_rtc.h ****   *         DR           DU            LL_RTC_DATE_GetDay
1554:Drivers/STM32L0xx_HAL_Driver/Inc/stm32l0xx_ll_rtc.h ****   * @param  RTCx RTC Instance
1555:Drivers/STM32L0xx_HAL_Driver/Inc/stm32l0xx_ll_rtc.h ****   * @retval Value between Min_Data=0x01 and Max_Data=0x31
1556:Drivers/STM32L0xx_HAL_Driver/Inc/stm32l0xx_ll_rtc.h ****   */
1557:Drivers/STM32L0xx_HAL_Driver/Inc/stm32l0xx_ll_rtc.h **** __STATIC_INLINE uint32_t LL_RTC_DATE_GetDay(RTC_TypeDef *RTCx)
1558:Drivers/STM32L0xx_HAL_Driver/Inc/stm32l0xx_ll_rtc.h **** {
1559:Drivers/STM32L0xx_HAL_Driver/Inc/stm32l0xx_ll_rtc.h ****   register uint32_t temp = 0U;
1560:Drivers/STM32L0xx_HAL_Driver/Inc/stm32l0xx_ll_rtc.h **** 
ARM GAS  /tmp/ccnIlCuV.s 			page 41


1561:Drivers/STM32L0xx_HAL_Driver/Inc/stm32l0xx_ll_rtc.h ****   temp = READ_BIT(RTCx->DR, (RTC_DR_DT | RTC_DR_DU));
1562:Drivers/STM32L0xx_HAL_Driver/Inc/stm32l0xx_ll_rtc.h ****   return (uint32_t)((((temp & RTC_DR_DT) >> RTC_POSITION_DR_DT) << 4U) | ((temp & RTC_DR_DU) >> RTC
1563:Drivers/STM32L0xx_HAL_Driver/Inc/stm32l0xx_ll_rtc.h **** }
1564:Drivers/STM32L0xx_HAL_Driver/Inc/stm32l0xx_ll_rtc.h **** 
1565:Drivers/STM32L0xx_HAL_Driver/Inc/stm32l0xx_ll_rtc.h **** /**
1566:Drivers/STM32L0xx_HAL_Driver/Inc/stm32l0xx_ll_rtc.h ****   * @brief  Set date (WeekDay, Day, Month and Year) in BCD format
1567:Drivers/STM32L0xx_HAL_Driver/Inc/stm32l0xx_ll_rtc.h ****   * @rmtoll DR           WDU           LL_RTC_DATE_Config\n
1568:Drivers/STM32L0xx_HAL_Driver/Inc/stm32l0xx_ll_rtc.h ****   *         DR           MT            LL_RTC_DATE_Config\n
1569:Drivers/STM32L0xx_HAL_Driver/Inc/stm32l0xx_ll_rtc.h ****   *         DR           MU            LL_RTC_DATE_Config\n
1570:Drivers/STM32L0xx_HAL_Driver/Inc/stm32l0xx_ll_rtc.h ****   *         DR           DT            LL_RTC_DATE_Config\n
1571:Drivers/STM32L0xx_HAL_Driver/Inc/stm32l0xx_ll_rtc.h ****   *         DR           DU            LL_RTC_DATE_Config\n
1572:Drivers/STM32L0xx_HAL_Driver/Inc/stm32l0xx_ll_rtc.h ****   *         DR           YT            LL_RTC_DATE_Config\n
1573:Drivers/STM32L0xx_HAL_Driver/Inc/stm32l0xx_ll_rtc.h ****   *         DR           YU            LL_RTC_DATE_Config
1574:Drivers/STM32L0xx_HAL_Driver/Inc/stm32l0xx_ll_rtc.h ****   * @param  RTCx RTC Instance
1575:Drivers/STM32L0xx_HAL_Driver/Inc/stm32l0xx_ll_rtc.h ****   * @param  WeekDay This parameter can be one of the following values:
1576:Drivers/STM32L0xx_HAL_Driver/Inc/stm32l0xx_ll_rtc.h ****   *         @arg @ref LL_RTC_WEEKDAY_MONDAY
1577:Drivers/STM32L0xx_HAL_Driver/Inc/stm32l0xx_ll_rtc.h ****   *         @arg @ref LL_RTC_WEEKDAY_TUESDAY
1578:Drivers/STM32L0xx_HAL_Driver/Inc/stm32l0xx_ll_rtc.h ****   *         @arg @ref LL_RTC_WEEKDAY_WEDNESDAY
1579:Drivers/STM32L0xx_HAL_Driver/Inc/stm32l0xx_ll_rtc.h ****   *         @arg @ref LL_RTC_WEEKDAY_THURSDAY
1580:Drivers/STM32L0xx_HAL_Driver/Inc/stm32l0xx_ll_rtc.h ****   *         @arg @ref LL_RTC_WEEKDAY_FRIDAY
1581:Drivers/STM32L0xx_HAL_Driver/Inc/stm32l0xx_ll_rtc.h ****   *         @arg @ref LL_RTC_WEEKDAY_SATURDAY
1582:Drivers/STM32L0xx_HAL_Driver/Inc/stm32l0xx_ll_rtc.h ****   *         @arg @ref LL_RTC_WEEKDAY_SUNDAY
1583:Drivers/STM32L0xx_HAL_Driver/Inc/stm32l0xx_ll_rtc.h ****   * @param  Day Value between Min_Data=0x01 and Max_Data=0x31
1584:Drivers/STM32L0xx_HAL_Driver/Inc/stm32l0xx_ll_rtc.h ****   * @param  Month This parameter can be one of the following values:
1585:Drivers/STM32L0xx_HAL_Driver/Inc/stm32l0xx_ll_rtc.h ****   *         @arg @ref LL_RTC_MONTH_JANUARY
1586:Drivers/STM32L0xx_HAL_Driver/Inc/stm32l0xx_ll_rtc.h ****   *         @arg @ref LL_RTC_MONTH_FEBRUARY
1587:Drivers/STM32L0xx_HAL_Driver/Inc/stm32l0xx_ll_rtc.h ****   *         @arg @ref LL_RTC_MONTH_MARCH
1588:Drivers/STM32L0xx_HAL_Driver/Inc/stm32l0xx_ll_rtc.h ****   *         @arg @ref LL_RTC_MONTH_APRIL
1589:Drivers/STM32L0xx_HAL_Driver/Inc/stm32l0xx_ll_rtc.h ****   *         @arg @ref LL_RTC_MONTH_MAY
1590:Drivers/STM32L0xx_HAL_Driver/Inc/stm32l0xx_ll_rtc.h ****   *         @arg @ref LL_RTC_MONTH_JUNE
1591:Drivers/STM32L0xx_HAL_Driver/Inc/stm32l0xx_ll_rtc.h ****   *         @arg @ref LL_RTC_MONTH_JULY
1592:Drivers/STM32L0xx_HAL_Driver/Inc/stm32l0xx_ll_rtc.h ****   *         @arg @ref LL_RTC_MONTH_AUGUST
1593:Drivers/STM32L0xx_HAL_Driver/Inc/stm32l0xx_ll_rtc.h ****   *         @arg @ref LL_RTC_MONTH_SEPTEMBER
1594:Drivers/STM32L0xx_HAL_Driver/Inc/stm32l0xx_ll_rtc.h ****   *         @arg @ref LL_RTC_MONTH_OCTOBER
1595:Drivers/STM32L0xx_HAL_Driver/Inc/stm32l0xx_ll_rtc.h ****   *         @arg @ref LL_RTC_MONTH_NOVEMBER
1596:Drivers/STM32L0xx_HAL_Driver/Inc/stm32l0xx_ll_rtc.h ****   *         @arg @ref LL_RTC_MONTH_DECEMBER
1597:Drivers/STM32L0xx_HAL_Driver/Inc/stm32l0xx_ll_rtc.h ****   * @param  Year Value between Min_Data=0x00 and Max_Data=0x99
1598:Drivers/STM32L0xx_HAL_Driver/Inc/stm32l0xx_ll_rtc.h ****   * @retval None
1599:Drivers/STM32L0xx_HAL_Driver/Inc/stm32l0xx_ll_rtc.h ****   */
1600:Drivers/STM32L0xx_HAL_Driver/Inc/stm32l0xx_ll_rtc.h **** __STATIC_INLINE void LL_RTC_DATE_Config(RTC_TypeDef *RTCx, uint32_t WeekDay, uint32_t Day, uint32_t
1601:Drivers/STM32L0xx_HAL_Driver/Inc/stm32l0xx_ll_rtc.h **** {
1602:Drivers/STM32L0xx_HAL_Driver/Inc/stm32l0xx_ll_rtc.h ****   register uint32_t temp = 0U;
1603:Drivers/STM32L0xx_HAL_Driver/Inc/stm32l0xx_ll_rtc.h **** 
1604:Drivers/STM32L0xx_HAL_Driver/Inc/stm32l0xx_ll_rtc.h ****   temp = (WeekDay << RTC_POSITION_DR_WDU)                                                        | 
1605:Drivers/STM32L0xx_HAL_Driver/Inc/stm32l0xx_ll_rtc.h ****          (((Year & 0xF0U) << (RTC_POSITION_DR_YT - 4U)) | ((Year & 0x0FU) << RTC_POSITION_DR_YU))  
1606:Drivers/STM32L0xx_HAL_Driver/Inc/stm32l0xx_ll_rtc.h ****          (((Month & 0xF0U) << (RTC_POSITION_DR_MT - 4U)) | ((Month & 0x0FU) << RTC_POSITION_DR_MU))
1607:Drivers/STM32L0xx_HAL_Driver/Inc/stm32l0xx_ll_rtc.h ****          (((Day & 0xF0U) << (RTC_POSITION_DR_DT - 4U)) | ((Day & 0x0FU) << RTC_POSITION_DR_DU));
1608:Drivers/STM32L0xx_HAL_Driver/Inc/stm32l0xx_ll_rtc.h **** 
1609:Drivers/STM32L0xx_HAL_Driver/Inc/stm32l0xx_ll_rtc.h ****   MODIFY_REG(RTCx->DR, (RTC_DR_WDU | RTC_DR_MT | RTC_DR_MU | RTC_DR_DT | RTC_DR_DU | RTC_DR_YT | RT
1610:Drivers/STM32L0xx_HAL_Driver/Inc/stm32l0xx_ll_rtc.h **** }
1611:Drivers/STM32L0xx_HAL_Driver/Inc/stm32l0xx_ll_rtc.h **** 
1612:Drivers/STM32L0xx_HAL_Driver/Inc/stm32l0xx_ll_rtc.h **** /**
1613:Drivers/STM32L0xx_HAL_Driver/Inc/stm32l0xx_ll_rtc.h ****   * @brief  Get date (WeekDay, Day, Month and Year) in BCD format
1614:Drivers/STM32L0xx_HAL_Driver/Inc/stm32l0xx_ll_rtc.h ****   * @note if shadow mode is disabled (BYPSHAD=0), need to check if RSF flag is set
1615:Drivers/STM32L0xx_HAL_Driver/Inc/stm32l0xx_ll_rtc.h ****   *       before reading this bit
1616:Drivers/STM32L0xx_HAL_Driver/Inc/stm32l0xx_ll_rtc.h ****   * @note helper macros __LL_RTC_GET_WEEKDAY, __LL_RTC_GET_YEAR, __LL_RTC_GET_MONTH,
1617:Drivers/STM32L0xx_HAL_Driver/Inc/stm32l0xx_ll_rtc.h ****   * and __LL_RTC_GET_DAY are available to get independently each parameter.
ARM GAS  /tmp/ccnIlCuV.s 			page 42


1618:Drivers/STM32L0xx_HAL_Driver/Inc/stm32l0xx_ll_rtc.h ****   * @rmtoll DR           WDU           LL_RTC_DATE_Get\n
1619:Drivers/STM32L0xx_HAL_Driver/Inc/stm32l0xx_ll_rtc.h ****   *         DR           MT            LL_RTC_DATE_Get\n
1620:Drivers/STM32L0xx_HAL_Driver/Inc/stm32l0xx_ll_rtc.h ****   *         DR           MU            LL_RTC_DATE_Get\n
1621:Drivers/STM32L0xx_HAL_Driver/Inc/stm32l0xx_ll_rtc.h ****   *         DR           DT            LL_RTC_DATE_Get\n
1622:Drivers/STM32L0xx_HAL_Driver/Inc/stm32l0xx_ll_rtc.h ****   *         DR           DU            LL_RTC_DATE_Get\n
1623:Drivers/STM32L0xx_HAL_Driver/Inc/stm32l0xx_ll_rtc.h ****   *         DR           YT            LL_RTC_DATE_Get\n
1624:Drivers/STM32L0xx_HAL_Driver/Inc/stm32l0xx_ll_rtc.h ****   *         DR           YU            LL_RTC_DATE_Get
1625:Drivers/STM32L0xx_HAL_Driver/Inc/stm32l0xx_ll_rtc.h ****   * @param  RTCx RTC Instance
1626:Drivers/STM32L0xx_HAL_Driver/Inc/stm32l0xx_ll_rtc.h ****   * @retval Combination of WeekDay, Day, Month and Year (Format: 0xWWDDMMYY).
1627:Drivers/STM32L0xx_HAL_Driver/Inc/stm32l0xx_ll_rtc.h ****   */
1628:Drivers/STM32L0xx_HAL_Driver/Inc/stm32l0xx_ll_rtc.h **** __STATIC_INLINE uint32_t LL_RTC_DATE_Get(RTC_TypeDef *RTCx)
1629:Drivers/STM32L0xx_HAL_Driver/Inc/stm32l0xx_ll_rtc.h **** {
1630:Drivers/STM32L0xx_HAL_Driver/Inc/stm32l0xx_ll_rtc.h ****   return (uint32_t)((LL_RTC_DATE_GetWeekDay(RTCx) << RTC_OFFSET_WEEKDAY) | (LL_RTC_DATE_GetDay(RTCx
1631:Drivers/STM32L0xx_HAL_Driver/Inc/stm32l0xx_ll_rtc.h **** }
1632:Drivers/STM32L0xx_HAL_Driver/Inc/stm32l0xx_ll_rtc.h **** 
1633:Drivers/STM32L0xx_HAL_Driver/Inc/stm32l0xx_ll_rtc.h **** /**
1634:Drivers/STM32L0xx_HAL_Driver/Inc/stm32l0xx_ll_rtc.h ****   * @}
1635:Drivers/STM32L0xx_HAL_Driver/Inc/stm32l0xx_ll_rtc.h ****   */
1636:Drivers/STM32L0xx_HAL_Driver/Inc/stm32l0xx_ll_rtc.h **** 
1637:Drivers/STM32L0xx_HAL_Driver/Inc/stm32l0xx_ll_rtc.h **** /** @defgroup RTC_LL_EF_ALARMA ALARMA
1638:Drivers/STM32L0xx_HAL_Driver/Inc/stm32l0xx_ll_rtc.h ****   * @{
1639:Drivers/STM32L0xx_HAL_Driver/Inc/stm32l0xx_ll_rtc.h ****   */
1640:Drivers/STM32L0xx_HAL_Driver/Inc/stm32l0xx_ll_rtc.h **** 
1641:Drivers/STM32L0xx_HAL_Driver/Inc/stm32l0xx_ll_rtc.h **** /**
1642:Drivers/STM32L0xx_HAL_Driver/Inc/stm32l0xx_ll_rtc.h ****   * @brief  Enable Alarm A
1643:Drivers/STM32L0xx_HAL_Driver/Inc/stm32l0xx_ll_rtc.h ****   * @note   Bit is write-protected. @ref LL_RTC_DisableWriteProtection function should be called be
1644:Drivers/STM32L0xx_HAL_Driver/Inc/stm32l0xx_ll_rtc.h ****   * @rmtoll CR           ALRAE         LL_RTC_ALMA_Enable
1645:Drivers/STM32L0xx_HAL_Driver/Inc/stm32l0xx_ll_rtc.h ****   * @param  RTCx RTC Instance
1646:Drivers/STM32L0xx_HAL_Driver/Inc/stm32l0xx_ll_rtc.h ****   * @retval None
1647:Drivers/STM32L0xx_HAL_Driver/Inc/stm32l0xx_ll_rtc.h ****   */
1648:Drivers/STM32L0xx_HAL_Driver/Inc/stm32l0xx_ll_rtc.h **** __STATIC_INLINE void LL_RTC_ALMA_Enable(RTC_TypeDef *RTCx)
1649:Drivers/STM32L0xx_HAL_Driver/Inc/stm32l0xx_ll_rtc.h **** {
1650:Drivers/STM32L0xx_HAL_Driver/Inc/stm32l0xx_ll_rtc.h ****   SET_BIT(RTCx->CR, RTC_CR_ALRAE);
1651:Drivers/STM32L0xx_HAL_Driver/Inc/stm32l0xx_ll_rtc.h **** }
1652:Drivers/STM32L0xx_HAL_Driver/Inc/stm32l0xx_ll_rtc.h **** 
1653:Drivers/STM32L0xx_HAL_Driver/Inc/stm32l0xx_ll_rtc.h **** /**
1654:Drivers/STM32L0xx_HAL_Driver/Inc/stm32l0xx_ll_rtc.h ****   * @brief  Disable Alarm A
1655:Drivers/STM32L0xx_HAL_Driver/Inc/stm32l0xx_ll_rtc.h ****   * @note   Bit is write-protected. @ref LL_RTC_DisableWriteProtection function should be called be
1656:Drivers/STM32L0xx_HAL_Driver/Inc/stm32l0xx_ll_rtc.h ****   * @rmtoll CR           ALRAE         LL_RTC_ALMA_Disable
1657:Drivers/STM32L0xx_HAL_Driver/Inc/stm32l0xx_ll_rtc.h ****   * @param  RTCx RTC Instance
1658:Drivers/STM32L0xx_HAL_Driver/Inc/stm32l0xx_ll_rtc.h ****   * @retval None
1659:Drivers/STM32L0xx_HAL_Driver/Inc/stm32l0xx_ll_rtc.h ****   */
1660:Drivers/STM32L0xx_HAL_Driver/Inc/stm32l0xx_ll_rtc.h **** __STATIC_INLINE void LL_RTC_ALMA_Disable(RTC_TypeDef *RTCx)
1661:Drivers/STM32L0xx_HAL_Driver/Inc/stm32l0xx_ll_rtc.h **** {
1662:Drivers/STM32L0xx_HAL_Driver/Inc/stm32l0xx_ll_rtc.h ****   CLEAR_BIT(RTCx->CR, RTC_CR_ALRAE);
1663:Drivers/STM32L0xx_HAL_Driver/Inc/stm32l0xx_ll_rtc.h **** }
1664:Drivers/STM32L0xx_HAL_Driver/Inc/stm32l0xx_ll_rtc.h **** 
1665:Drivers/STM32L0xx_HAL_Driver/Inc/stm32l0xx_ll_rtc.h **** /**
1666:Drivers/STM32L0xx_HAL_Driver/Inc/stm32l0xx_ll_rtc.h ****   * @brief  Specify the Alarm A masks.
1667:Drivers/STM32L0xx_HAL_Driver/Inc/stm32l0xx_ll_rtc.h ****   * @rmtoll ALRMAR       MSK4          LL_RTC_ALMA_SetMask\n
1668:Drivers/STM32L0xx_HAL_Driver/Inc/stm32l0xx_ll_rtc.h ****   *         ALRMAR       MSK3          LL_RTC_ALMA_SetMask\n
1669:Drivers/STM32L0xx_HAL_Driver/Inc/stm32l0xx_ll_rtc.h ****   *         ALRMAR       MSK2          LL_RTC_ALMA_SetMask\n
1670:Drivers/STM32L0xx_HAL_Driver/Inc/stm32l0xx_ll_rtc.h ****   *         ALRMAR       MSK1          LL_RTC_ALMA_SetMask
1671:Drivers/STM32L0xx_HAL_Driver/Inc/stm32l0xx_ll_rtc.h ****   * @param  RTCx RTC Instance
1672:Drivers/STM32L0xx_HAL_Driver/Inc/stm32l0xx_ll_rtc.h ****   * @param  Mask This parameter can be a combination of the following values:
1673:Drivers/STM32L0xx_HAL_Driver/Inc/stm32l0xx_ll_rtc.h ****   *         @arg @ref LL_RTC_ALMA_MASK_NONE
1674:Drivers/STM32L0xx_HAL_Driver/Inc/stm32l0xx_ll_rtc.h ****   *         @arg @ref LL_RTC_ALMA_MASK_DATEWEEKDAY
ARM GAS  /tmp/ccnIlCuV.s 			page 43


1675:Drivers/STM32L0xx_HAL_Driver/Inc/stm32l0xx_ll_rtc.h ****   *         @arg @ref LL_RTC_ALMA_MASK_HOURS
1676:Drivers/STM32L0xx_HAL_Driver/Inc/stm32l0xx_ll_rtc.h ****   *         @arg @ref LL_RTC_ALMA_MASK_MINUTES
1677:Drivers/STM32L0xx_HAL_Driver/Inc/stm32l0xx_ll_rtc.h ****   *         @arg @ref LL_RTC_ALMA_MASK_SECONDS
1678:Drivers/STM32L0xx_HAL_Driver/Inc/stm32l0xx_ll_rtc.h ****   *         @arg @ref LL_RTC_ALMA_MASK_ALL
1679:Drivers/STM32L0xx_HAL_Driver/Inc/stm32l0xx_ll_rtc.h ****   * @retval None
1680:Drivers/STM32L0xx_HAL_Driver/Inc/stm32l0xx_ll_rtc.h ****   */
1681:Drivers/STM32L0xx_HAL_Driver/Inc/stm32l0xx_ll_rtc.h **** __STATIC_INLINE void LL_RTC_ALMA_SetMask(RTC_TypeDef *RTCx, uint32_t Mask)
1682:Drivers/STM32L0xx_HAL_Driver/Inc/stm32l0xx_ll_rtc.h **** {
1683:Drivers/STM32L0xx_HAL_Driver/Inc/stm32l0xx_ll_rtc.h ****   MODIFY_REG(RTCx->ALRMAR, RTC_ALRMAR_MSK4 | RTC_ALRMAR_MSK3 | RTC_ALRMAR_MSK2 | RTC_ALRMAR_MSK1, M
1684:Drivers/STM32L0xx_HAL_Driver/Inc/stm32l0xx_ll_rtc.h **** }
1685:Drivers/STM32L0xx_HAL_Driver/Inc/stm32l0xx_ll_rtc.h **** 
1686:Drivers/STM32L0xx_HAL_Driver/Inc/stm32l0xx_ll_rtc.h **** /**
1687:Drivers/STM32L0xx_HAL_Driver/Inc/stm32l0xx_ll_rtc.h ****   * @brief  Get the Alarm A masks.
1688:Drivers/STM32L0xx_HAL_Driver/Inc/stm32l0xx_ll_rtc.h ****   * @rmtoll ALRMAR       MSK4          LL_RTC_ALMA_GetMask\n
1689:Drivers/STM32L0xx_HAL_Driver/Inc/stm32l0xx_ll_rtc.h ****   *         ALRMAR       MSK3          LL_RTC_ALMA_GetMask\n
1690:Drivers/STM32L0xx_HAL_Driver/Inc/stm32l0xx_ll_rtc.h ****   *         ALRMAR       MSK2          LL_RTC_ALMA_GetMask\n
1691:Drivers/STM32L0xx_HAL_Driver/Inc/stm32l0xx_ll_rtc.h ****   *         ALRMAR       MSK1          LL_RTC_ALMA_GetMask
1692:Drivers/STM32L0xx_HAL_Driver/Inc/stm32l0xx_ll_rtc.h ****   * @param  RTCx RTC Instance
1693:Drivers/STM32L0xx_HAL_Driver/Inc/stm32l0xx_ll_rtc.h ****   * @retval Returned value can be can be a combination of the following values:
1694:Drivers/STM32L0xx_HAL_Driver/Inc/stm32l0xx_ll_rtc.h ****   *         @arg @ref LL_RTC_ALMA_MASK_NONE
1695:Drivers/STM32L0xx_HAL_Driver/Inc/stm32l0xx_ll_rtc.h ****   *         @arg @ref LL_RTC_ALMA_MASK_DATEWEEKDAY
1696:Drivers/STM32L0xx_HAL_Driver/Inc/stm32l0xx_ll_rtc.h ****   *         @arg @ref LL_RTC_ALMA_MASK_HOURS
1697:Drivers/STM32L0xx_HAL_Driver/Inc/stm32l0xx_ll_rtc.h ****   *         @arg @ref LL_RTC_ALMA_MASK_MINUTES
1698:Drivers/STM32L0xx_HAL_Driver/Inc/stm32l0xx_ll_rtc.h ****   *         @arg @ref LL_RTC_ALMA_MASK_SECONDS
1699:Drivers/STM32L0xx_HAL_Driver/Inc/stm32l0xx_ll_rtc.h ****   *         @arg @ref LL_RTC_ALMA_MASK_ALL
1700:Drivers/STM32L0xx_HAL_Driver/Inc/stm32l0xx_ll_rtc.h ****   */
1701:Drivers/STM32L0xx_HAL_Driver/Inc/stm32l0xx_ll_rtc.h **** __STATIC_INLINE uint32_t LL_RTC_ALMA_GetMask(RTC_TypeDef *RTCx)
1702:Drivers/STM32L0xx_HAL_Driver/Inc/stm32l0xx_ll_rtc.h **** {
1703:Drivers/STM32L0xx_HAL_Driver/Inc/stm32l0xx_ll_rtc.h ****   return (uint32_t)(READ_BIT(RTCx->ALRMAR, RTC_ALRMAR_MSK4 | RTC_ALRMAR_MSK3 | RTC_ALRMAR_MSK2 | RT
1704:Drivers/STM32L0xx_HAL_Driver/Inc/stm32l0xx_ll_rtc.h **** }
1705:Drivers/STM32L0xx_HAL_Driver/Inc/stm32l0xx_ll_rtc.h **** 
1706:Drivers/STM32L0xx_HAL_Driver/Inc/stm32l0xx_ll_rtc.h **** /**
1707:Drivers/STM32L0xx_HAL_Driver/Inc/stm32l0xx_ll_rtc.h ****   * @brief  Enable AlarmA Week day selection (DU[3:0] represents the week day. DT[1:0] is do not ca
1708:Drivers/STM32L0xx_HAL_Driver/Inc/stm32l0xx_ll_rtc.h ****   * @rmtoll ALRMAR       WDSEL         LL_RTC_ALMA_EnableWeekday
1709:Drivers/STM32L0xx_HAL_Driver/Inc/stm32l0xx_ll_rtc.h ****   * @param  RTCx RTC Instance
1710:Drivers/STM32L0xx_HAL_Driver/Inc/stm32l0xx_ll_rtc.h ****   * @retval None
1711:Drivers/STM32L0xx_HAL_Driver/Inc/stm32l0xx_ll_rtc.h ****   */
1712:Drivers/STM32L0xx_HAL_Driver/Inc/stm32l0xx_ll_rtc.h **** __STATIC_INLINE void LL_RTC_ALMA_EnableWeekday(RTC_TypeDef *RTCx)
1713:Drivers/STM32L0xx_HAL_Driver/Inc/stm32l0xx_ll_rtc.h **** {
1714:Drivers/STM32L0xx_HAL_Driver/Inc/stm32l0xx_ll_rtc.h ****   SET_BIT(RTCx->ALRMAR, RTC_ALRMAR_WDSEL);
1715:Drivers/STM32L0xx_HAL_Driver/Inc/stm32l0xx_ll_rtc.h **** }
1716:Drivers/STM32L0xx_HAL_Driver/Inc/stm32l0xx_ll_rtc.h **** 
1717:Drivers/STM32L0xx_HAL_Driver/Inc/stm32l0xx_ll_rtc.h **** /**
1718:Drivers/STM32L0xx_HAL_Driver/Inc/stm32l0xx_ll_rtc.h ****   * @brief  Disable AlarmA Week day selection (DU[3:0] represents the date )
1719:Drivers/STM32L0xx_HAL_Driver/Inc/stm32l0xx_ll_rtc.h ****   * @rmtoll ALRMAR       WDSEL         LL_RTC_ALMA_DisableWeekday
1720:Drivers/STM32L0xx_HAL_Driver/Inc/stm32l0xx_ll_rtc.h ****   * @param  RTCx RTC Instance
1721:Drivers/STM32L0xx_HAL_Driver/Inc/stm32l0xx_ll_rtc.h ****   * @retval None
1722:Drivers/STM32L0xx_HAL_Driver/Inc/stm32l0xx_ll_rtc.h ****   */
1723:Drivers/STM32L0xx_HAL_Driver/Inc/stm32l0xx_ll_rtc.h **** __STATIC_INLINE void LL_RTC_ALMA_DisableWeekday(RTC_TypeDef *RTCx)
1724:Drivers/STM32L0xx_HAL_Driver/Inc/stm32l0xx_ll_rtc.h **** {
1725:Drivers/STM32L0xx_HAL_Driver/Inc/stm32l0xx_ll_rtc.h ****   CLEAR_BIT(RTCx->ALRMAR, RTC_ALRMAR_WDSEL);
 185              		.loc 2 1725 0
 186 002c E369     		ldr	r3, [r4, #28]
 187 002e 454A     		ldr	r2, .L15
 188              	.LVL9:
 189 0030 1340     		ands	r3, r2
 190 0032 E361     		str	r3, [r4, #28]
ARM GAS  /tmp/ccnIlCuV.s 			page 44


 191              	.LVL10:
 192              	.LBE125:
 193              	.LBE124:
 544:./Drivers/STM32L0xx_HAL_Driver/Src/stm32l0xx_ll_rtc.c ****   {
 545:./Drivers/STM32L0xx_HAL_Driver/Src/stm32l0xx_ll_rtc.c ****     /* Set the date for ALARM */
 546:./Drivers/STM32L0xx_HAL_Driver/Src/stm32l0xx_ll_rtc.c ****     LL_RTC_ALMA_DisableWeekday(RTCx);
 547:./Drivers/STM32L0xx_HAL_Driver/Src/stm32l0xx_ll_rtc.c ****     if (RTC_Format != LL_RTC_FORMAT_BIN)
 194              		.loc 1 547 0
 195 0034 002E     		cmp	r6, #0
 196 0036 0DD0     		beq	.L10
 548:./Drivers/STM32L0xx_HAL_Driver/Src/stm32l0xx_ll_rtc.c ****     {
 549:./Drivers/STM32L0xx_HAL_Driver/Src/stm32l0xx_ll_rtc.c ****       LL_RTC_ALMA_SetDay(RTCx, RTC_AlarmStruct->AlarmDateWeekDay);
 197              		.loc 1 549 0
 198 0038 2A7C     		ldrb	r2, [r5, #16]
 199              	.LVL11:
 200              	.LBB126:
 201              	.LBB127:
1726:Drivers/STM32L0xx_HAL_Driver/Inc/stm32l0xx_ll_rtc.h **** }
1727:Drivers/STM32L0xx_HAL_Driver/Inc/stm32l0xx_ll_rtc.h **** 
1728:Drivers/STM32L0xx_HAL_Driver/Inc/stm32l0xx_ll_rtc.h **** /**
1729:Drivers/STM32L0xx_HAL_Driver/Inc/stm32l0xx_ll_rtc.h ****   * @brief  Set ALARM A Day in BCD format
1730:Drivers/STM32L0xx_HAL_Driver/Inc/stm32l0xx_ll_rtc.h ****   * @note helper macro __LL_RTC_CONVERT_BIN2BCD is available to convert Day from binary to BCD form
1731:Drivers/STM32L0xx_HAL_Driver/Inc/stm32l0xx_ll_rtc.h ****   * @rmtoll ALRMAR       DT            LL_RTC_ALMA_SetDay\n
1732:Drivers/STM32L0xx_HAL_Driver/Inc/stm32l0xx_ll_rtc.h ****   *         ALRMAR       DU            LL_RTC_ALMA_SetDay
1733:Drivers/STM32L0xx_HAL_Driver/Inc/stm32l0xx_ll_rtc.h ****   * @param  RTCx RTC Instance
1734:Drivers/STM32L0xx_HAL_Driver/Inc/stm32l0xx_ll_rtc.h ****   * @param  Day Value between Min_Data=0x01 and Max_Data=0x31
1735:Drivers/STM32L0xx_HAL_Driver/Inc/stm32l0xx_ll_rtc.h ****   * @retval None
1736:Drivers/STM32L0xx_HAL_Driver/Inc/stm32l0xx_ll_rtc.h ****   */
1737:Drivers/STM32L0xx_HAL_Driver/Inc/stm32l0xx_ll_rtc.h **** __STATIC_INLINE void LL_RTC_ALMA_SetDay(RTC_TypeDef *RTCx, uint32_t Day)
1738:Drivers/STM32L0xx_HAL_Driver/Inc/stm32l0xx_ll_rtc.h **** {
1739:Drivers/STM32L0xx_HAL_Driver/Inc/stm32l0xx_ll_rtc.h ****   MODIFY_REG(RTCx->ALRMAR, (RTC_ALRMAR_DT | RTC_ALRMAR_DU),
 202              		.loc 2 1739 0
 203 003a E369     		ldr	r3, [r4, #28]
 204 003c 4249     		ldr	r1, .L15+4
 205              	.LVL12:
 206 003e 0B40     		ands	r3, r1
 207 0040 1206     		lsls	r2, r2, #24
 208              	.LVL13:
 209 0042 1343     		orrs	r3, r2
 210 0044 E361     		str	r3, [r4, #28]
 211              	.LVL14:
 212 0046 26E0     		b	.L11
 213              	.LVL15:
 214              	.L5:
 215              	.LBE127:
 216              	.LBE126:
 217              	.LBB128:
 218              	.LBB129:
 820:Drivers/STM32L0xx_HAL_Driver/Inc/stm32l0xx_ll_rtc.h **** }
 219              		.loc 2 820 0
 220 0048 8368     		ldr	r3, [r0, #8]
 221              	.LVL16:
 222              	.LBE129:
 223              	.LBE128:
 515:./Drivers/STM32L0xx_HAL_Driver/Src/stm32l0xx_ll_rtc.c ****     {
 224              		.loc 1 515 0
 225 004a 5B06     		lsls	r3, r3, #25
ARM GAS  /tmp/ccnIlCuV.s 			page 45


 226 004c E7D4     		bmi	.L7
 522:./Drivers/STM32L0xx_HAL_Driver/Src/stm32l0xx_ll_rtc.c ****       assert_param(IS_LL_RTC_HOUR24(__LL_RTC_CONVERT_BCD2BIN(RTC_AlarmStruct->AlarmTime.Hours)));
 227              		.loc 1 522 0
 228 004e 0023     		movs	r3, #0
 229 0050 1360     		str	r3, [r2]
 230 0052 E4E7     		b	.L7
 231              	.LVL17:
 232              	.L10:
 550:./Drivers/STM32L0xx_HAL_Driver/Src/stm32l0xx_ll_rtc.c ****     }
 551:./Drivers/STM32L0xx_HAL_Driver/Src/stm32l0xx_ll_rtc.c ****     else
 552:./Drivers/STM32L0xx_HAL_Driver/Src/stm32l0xx_ll_rtc.c ****     {
 553:./Drivers/STM32L0xx_HAL_Driver/Src/stm32l0xx_ll_rtc.c ****       LL_RTC_ALMA_SetDay(RTCx, __LL_RTC_CONVERT_BIN2BCD(RTC_AlarmStruct->AlarmDateWeekDay));
 233              		.loc 1 553 0
 234 0054 2F7C     		ldrb	r7, [r5, #16]
 235 0056 0A21     		movs	r1, #10
 236              	.LVL18:
 237 0058 3800     		movs	r0, r7
 238              	.LVL19:
 239 005a FFF7FEFF 		bl	__aeabi_uidiv
 240              	.LVL20:
 241 005e 0001     		lsls	r0, r0, #4
 242 0060 C3B2     		uxtb	r3, r0
 243 0062 9846     		mov	r8, r3
 244 0064 0A21     		movs	r1, #10
 245 0066 3800     		movs	r0, r7
 246 0068 FFF7FEFF 		bl	__aeabi_uidivmod
 247              	.LVL21:
 248 006c 4346     		mov	r3, r8
 249 006e 1943     		orrs	r1, r3
 250              	.LVL22:
 251              	.LBB130:
 252              	.LBB131:
 253              		.loc 2 1739 0
 254 0070 E369     		ldr	r3, [r4, #28]
 255 0072 354A     		ldr	r2, .L15+4
 256 0074 1340     		ands	r3, r2
 257 0076 0906     		lsls	r1, r1, #24
 258              	.LVL23:
 259 0078 1943     		orrs	r1, r3
 260 007a E161     		str	r1, [r4, #28]
 261 007c 0BE0     		b	.L11
 262              	.LVL24:
 263              	.L9:
 264              	.LBE131:
 265              	.LBE130:
 266              	.LBB132:
 267              	.LBB133:
1714:Drivers/STM32L0xx_HAL_Driver/Inc/stm32l0xx_ll_rtc.h **** }
 268              		.loc 2 1714 0
 269 007e E269     		ldr	r2, [r4, #28]
 270              	.LVL25:
 271 0080 8023     		movs	r3, #128
 272 0082 DB05     		lsls	r3, r3, #23
 273 0084 1343     		orrs	r3, r2
 274 0086 E361     		str	r3, [r4, #28]
 275              	.LVL26:
 276              	.LBE133:
ARM GAS  /tmp/ccnIlCuV.s 			page 46


 277              	.LBE132:
 554:./Drivers/STM32L0xx_HAL_Driver/Src/stm32l0xx_ll_rtc.c ****     }
 555:./Drivers/STM32L0xx_HAL_Driver/Src/stm32l0xx_ll_rtc.c ****   }
 556:./Drivers/STM32L0xx_HAL_Driver/Src/stm32l0xx_ll_rtc.c ****   else
 557:./Drivers/STM32L0xx_HAL_Driver/Src/stm32l0xx_ll_rtc.c ****   {
 558:./Drivers/STM32L0xx_HAL_Driver/Src/stm32l0xx_ll_rtc.c ****     /* Set the week day for ALARM */
 559:./Drivers/STM32L0xx_HAL_Driver/Src/stm32l0xx_ll_rtc.c ****     LL_RTC_ALMA_EnableWeekday(RTCx);
 560:./Drivers/STM32L0xx_HAL_Driver/Src/stm32l0xx_ll_rtc.c ****     LL_RTC_ALMA_SetWeekDay(RTCx, RTC_AlarmStruct->AlarmDateWeekDay);
 278              		.loc 1 560 0
 279 0088 2A7C     		ldrb	r2, [r5, #16]
 280              	.LVL27:
 281              	.LBB134:
 282              	.LBB135:
1740:Drivers/STM32L0xx_HAL_Driver/Inc/stm32l0xx_ll_rtc.h ****              (((Day & 0xF0U) << (RTC_POSITION_ALMA_DT - 4U)) | ((Day & 0x0FU) << RTC_POSITION_ALMA_
1741:Drivers/STM32L0xx_HAL_Driver/Inc/stm32l0xx_ll_rtc.h **** }
1742:Drivers/STM32L0xx_HAL_Driver/Inc/stm32l0xx_ll_rtc.h **** 
1743:Drivers/STM32L0xx_HAL_Driver/Inc/stm32l0xx_ll_rtc.h **** /**
1744:Drivers/STM32L0xx_HAL_Driver/Inc/stm32l0xx_ll_rtc.h ****   * @brief  Get ALARM A Day in BCD format
1745:Drivers/STM32L0xx_HAL_Driver/Inc/stm32l0xx_ll_rtc.h ****   * @note helper macro __LL_RTC_CONVERT_BCD2BIN is available to convert Day from BCD to Binary form
1746:Drivers/STM32L0xx_HAL_Driver/Inc/stm32l0xx_ll_rtc.h ****   * @rmtoll ALRMAR       DT            LL_RTC_ALMA_GetDay\n
1747:Drivers/STM32L0xx_HAL_Driver/Inc/stm32l0xx_ll_rtc.h ****   *         ALRMAR       DU            LL_RTC_ALMA_GetDay
1748:Drivers/STM32L0xx_HAL_Driver/Inc/stm32l0xx_ll_rtc.h ****   * @param  RTCx RTC Instance
1749:Drivers/STM32L0xx_HAL_Driver/Inc/stm32l0xx_ll_rtc.h ****   * @retval Value between Min_Data=0x01 and Max_Data=0x31
1750:Drivers/STM32L0xx_HAL_Driver/Inc/stm32l0xx_ll_rtc.h ****   */
1751:Drivers/STM32L0xx_HAL_Driver/Inc/stm32l0xx_ll_rtc.h **** __STATIC_INLINE uint32_t LL_RTC_ALMA_GetDay(RTC_TypeDef *RTCx)
1752:Drivers/STM32L0xx_HAL_Driver/Inc/stm32l0xx_ll_rtc.h **** {
1753:Drivers/STM32L0xx_HAL_Driver/Inc/stm32l0xx_ll_rtc.h ****   register uint32_t temp = 0U;
1754:Drivers/STM32L0xx_HAL_Driver/Inc/stm32l0xx_ll_rtc.h **** 
1755:Drivers/STM32L0xx_HAL_Driver/Inc/stm32l0xx_ll_rtc.h ****   temp = READ_BIT(RTCx->ALRMAR, (RTC_ALRMAR_DT | RTC_ALRMAR_DU));
1756:Drivers/STM32L0xx_HAL_Driver/Inc/stm32l0xx_ll_rtc.h ****   return (uint32_t)((((temp & RTC_ALRMAR_DT) >> RTC_POSITION_ALMA_DT) << 4U) | ((temp & RTC_ALRMAR_
1757:Drivers/STM32L0xx_HAL_Driver/Inc/stm32l0xx_ll_rtc.h **** }
1758:Drivers/STM32L0xx_HAL_Driver/Inc/stm32l0xx_ll_rtc.h **** 
1759:Drivers/STM32L0xx_HAL_Driver/Inc/stm32l0xx_ll_rtc.h **** /**
1760:Drivers/STM32L0xx_HAL_Driver/Inc/stm32l0xx_ll_rtc.h ****   * @brief  Set ALARM A Weekday
1761:Drivers/STM32L0xx_HAL_Driver/Inc/stm32l0xx_ll_rtc.h ****   * @rmtoll ALRMAR       DU            LL_RTC_ALMA_SetWeekDay
1762:Drivers/STM32L0xx_HAL_Driver/Inc/stm32l0xx_ll_rtc.h ****   * @param  RTCx RTC Instance
1763:Drivers/STM32L0xx_HAL_Driver/Inc/stm32l0xx_ll_rtc.h ****   * @param  WeekDay This parameter can be one of the following values:
1764:Drivers/STM32L0xx_HAL_Driver/Inc/stm32l0xx_ll_rtc.h ****   *         @arg @ref LL_RTC_WEEKDAY_MONDAY
1765:Drivers/STM32L0xx_HAL_Driver/Inc/stm32l0xx_ll_rtc.h ****   *         @arg @ref LL_RTC_WEEKDAY_TUESDAY
1766:Drivers/STM32L0xx_HAL_Driver/Inc/stm32l0xx_ll_rtc.h ****   *         @arg @ref LL_RTC_WEEKDAY_WEDNESDAY
1767:Drivers/STM32L0xx_HAL_Driver/Inc/stm32l0xx_ll_rtc.h ****   *         @arg @ref LL_RTC_WEEKDAY_THURSDAY
1768:Drivers/STM32L0xx_HAL_Driver/Inc/stm32l0xx_ll_rtc.h ****   *         @arg @ref LL_RTC_WEEKDAY_FRIDAY
1769:Drivers/STM32L0xx_HAL_Driver/Inc/stm32l0xx_ll_rtc.h ****   *         @arg @ref LL_RTC_WEEKDAY_SATURDAY
1770:Drivers/STM32L0xx_HAL_Driver/Inc/stm32l0xx_ll_rtc.h ****   *         @arg @ref LL_RTC_WEEKDAY_SUNDAY
1771:Drivers/STM32L0xx_HAL_Driver/Inc/stm32l0xx_ll_rtc.h ****   * @retval None
1772:Drivers/STM32L0xx_HAL_Driver/Inc/stm32l0xx_ll_rtc.h ****   */
1773:Drivers/STM32L0xx_HAL_Driver/Inc/stm32l0xx_ll_rtc.h **** __STATIC_INLINE void LL_RTC_ALMA_SetWeekDay(RTC_TypeDef *RTCx, uint32_t WeekDay)
1774:Drivers/STM32L0xx_HAL_Driver/Inc/stm32l0xx_ll_rtc.h **** {
1775:Drivers/STM32L0xx_HAL_Driver/Inc/stm32l0xx_ll_rtc.h ****   MODIFY_REG(RTCx->ALRMAR, RTC_ALRMAR_DU, WeekDay << RTC_POSITION_ALMA_DU);
 283              		.loc 2 1775 0
 284 008a E369     		ldr	r3, [r4, #28]
 285 008c 2F49     		ldr	r1, .L15+8
 286              	.LVL28:
 287 008e 0B40     		ands	r3, r1
 288 0090 1206     		lsls	r2, r2, #24
 289              	.LVL29:
 290 0092 1343     		orrs	r3, r2
ARM GAS  /tmp/ccnIlCuV.s 			page 47


 291 0094 E361     		str	r3, [r4, #28]
 292              	.LVL30:
 293              	.L11:
 294              	.LBE135:
 295              	.LBE134:
 561:./Drivers/STM32L0xx_HAL_Driver/Src/stm32l0xx_ll_rtc.c ****   }
 562:./Drivers/STM32L0xx_HAL_Driver/Src/stm32l0xx_ll_rtc.c **** 
 563:./Drivers/STM32L0xx_HAL_Driver/Src/stm32l0xx_ll_rtc.c ****   /* Configure the Alarm register */
 564:./Drivers/STM32L0xx_HAL_Driver/Src/stm32l0xx_ll_rtc.c ****   if (RTC_Format != LL_RTC_FORMAT_BIN)
 296              		.loc 1 564 0
 297 0096 002E     		cmp	r6, #0
 298 0098 45D1     		bne	.L14
 565:./Drivers/STM32L0xx_HAL_Driver/Src/stm32l0xx_ll_rtc.c ****   {
 566:./Drivers/STM32L0xx_HAL_Driver/Src/stm32l0xx_ll_rtc.c ****     LL_RTC_ALMA_ConfigTime(RTCx, RTC_AlarmStruct->AlarmTime.TimeFormat, RTC_AlarmStruct->AlarmTime.
 567:./Drivers/STM32L0xx_HAL_Driver/Src/stm32l0xx_ll_rtc.c ****                            RTC_AlarmStruct->AlarmTime.Minutes, RTC_AlarmStruct->AlarmTime.Seconds);
 568:./Drivers/STM32L0xx_HAL_Driver/Src/stm32l0xx_ll_rtc.c ****   }
 569:./Drivers/STM32L0xx_HAL_Driver/Src/stm32l0xx_ll_rtc.c ****   else
 570:./Drivers/STM32L0xx_HAL_Driver/Src/stm32l0xx_ll_rtc.c ****   {
